#SYMBOLS
Index	Identifier	Type	Flag	Data	Size	RefCount
0	__D0depart	6	1	0	4	50
1	__D0humeur	6	1	4	4	54
2	__D0cle	6	1	8	4	79
3	__SPTArgsMutex	9	0	12	4	16
4	__D0canape	6	1	16	4	57
5	__D0locaux	6	1	20	4	49
6	__DU0SetSensorLowspeed_inline_SetSensorUltrasonic	5	1	24	4	14
7	__D0rouge_detecte_inline_suivre_ligne	6	1	28	4	12
8	__D0SetSensorLowspeed_inline_SetSensorUltrasonic	6	1	32	4	21
9	__D0main	6	1	36	4	67
10	__D0suivre_ligne	6	1	40	4	20
11	__HTMplexScaled	5	1	44	4	10
12	__CLSRMutex2	9	0	48	4	2
13	__CLSCSMutex3	9	0	52	4	2
14	__CLSWMutex2	9	0	56	4	2
15	__ResetSensorMutex	9	0	60	4	34
16	__CLSCSMutex2	9	0	64	4	2
17	__CLSWMutex3	9	0	68	4	2
18	__RLSBmutex2	9	0	72	4	24
19	__RLSBmutex3	9	0	76	4	18
20	__PointOutMutex	9	0	80	4	4
21	__CLSRMutex3	9	0	84	4	2
22	__TextOutMutex	9	0	88	4	14
23	__Wait_7qG2_ms_7qG2_000_inline_depart	5	1	92	4	16
24	__Wait_7qG2_ms_7qG2_000_inline_suivre_ligne	5	1	96	4	12
25	__signed_stack_001rouge_detecte_inline_suivre_ligne	6	1	100	4	4
26	__signed_stack_002main	6	1	104	4	10
27	__signed_stack_001suivre_ligne	6	1	108	4	4
28	__Wait_7qG2_ms_7qG2_000_inline_canape	5	1	112	4	2
29	__Wait_7qG2_ms_7qG2_000_inline_main	5	1	116	4	8
30	__constVal346797	6	0	120	4	1
31	__Wait_7qG2_ms_7qG2_000_inline_cle	5	1	124	4	22
32	__Wait_7qG2_ms_7qG2_000_inline_locaux	5	1	128	4	14
33	__Wait_7qG2_ms_7qG2_000_inline_humeur	5	1	132	4	14
34	__signed_stack_001main	6	1	136	4	26
35	__signed_stack_002cle	6	1	140	4	16
36	__signed_stack_003cle	6	1	144	4	16
37	__signed_stack_001cle	6	1	148	4	38
38	__signed_stack_001canape	6	1	152	4	30
39	__signed_stack_002canape	6	1	156	4	4
40	__signed_stack_001depart	6	1	160	4	12
41	__signed_stack_001locaux	6	1	164	4	10
42	__signed_stack_002locaux	6	1	168	4	2
43	__signed_stack_002humeur	6	1	172	4	2
44	__signed_stack_002depart	6	1	176	4	4
45	__signed_stack_001humeur	6	1	180	4	16
46	__rotate_theAngle1	5	1	184	4	2
47	__rotate_angle0	6	1	188	4	13
48	__rotateMutex1	9	0	192	4	18
49	__OnRevMutex	9	0	196	4	56
50	__rotateMutex0	9	0	200	4	18
51	__rotate_angle1	6	1	204	4	13
52	__rotate_theAngle0	5	1	208	4	2
53	__constValNeg210	4	0	212	2	6
54	__constValNeg230	4	0	214	2	1
55	__humeur_7qG2_count_7qG2_000	4	1	216	2	4
56	__rotate_RotCount1	4	1	218	2	4
57	__rotate_OldRotCount1	4	1	220	2	2
58	premierefoisrouge	4	0	222	2	3
59	deportation	4	0	224	2	2
60	__constValNeg200	4	0	226	2	1
61	__canape_7qG2_dist_7qG2_000	4	1	228	2	5
62	__humeur_7qG2_i_7qG2_000	4	1	230	2	5
63	__canape_7qG2_i_7qG2_000	4	1	232	2	4
64	__canape_7qG2_count_7qG2_000	4	1	234	2	9
65	__constVal339	4	0	236	2	1
66	__main_7qG2_w_7qG2_000	4	1	238	2	2
67	__rotate_OldRotCount0	4	1	240	2	2
68	__HTMplexRaw	3	1	242	2	3
69	__constVal200	4	0	244	2	4
70	__locaux_7qG2_count_7qG2_000	4	1	246	2	4
71	__rotate_RotCount0	4	1	248	2	4
72	__SetSensorType_7qG2_port_7qG2_000_inline_SetSensorLowspeed_inline_SetSensorUltrasonic_inline_locaux	1	1	250	1	2
73	__SetSensorType_7qG2_type_7qG2_000_inline_SetSensorLowspeed_inline_SetSensorUltrasonic_inline_locaux	1	1	251	1	2
74	__SetSensorMode_7qG2_port_7qG2_000_inline_SetSensorLowspeed_inline_SetSensorUltrasonic_inline_locaux	1	1	252	1	2
75	__SetSensorLowspeed_7qG2_bIsPowered_7qG2_000_inline_SetSensorUltrasonic_inline_locaux	1	1	253	1	2
76	__locaux_return	1	1	254	1	3
77	__SetSensorType_7qG2_port_7qG2_000_inline_locaux	1	1	255	1	4
78	__rotate_power0	1	1	256	1	12
79	__SetSensorLowspeed_7qG2_port_7qG2_000_inline_SetSensorUltrasonic_inline_locaux	1	1	257	1	4
80	__SetSensorType_7qG2_type_7qG2_000_inline_locaux	1	1	258	1	4
81	__canape_return	1	1	259	1	3
82	__SetSensorColorFull_7qG2_port_7qG2_000_inline_rouge_detecte_inline_suivre_ligne	1	1	260	1	8
83	__SetSensorType_7qG2_type_7qG2_000_inline_canape	1	1	261	1	4
84	__SetSensorType_7qG2_port_7qG2_000_inline_canape	1	1	262	1	4
85	__constVal96	2	0	263	1	106
86	__depart_return	1	1	264	1	3
87	__suivre_ligne_return	1	1	265	1	3
88	__constVal63	2	0	266	1	88
89	__SetSensorMode_7qG2_port_7qG2_000_inline_SetSensorLowspeed_inline_SetSensorUltrasonic_inline_canape	1	1	267	1	4
90	__SetSensorType_7qG2_type_7qG2_000_inline_SetSensorLowspeed_inline_SetSensorUltrasonic_inline_canape	1	1	268	1	4
91	__ResetSensor_7qG2_port_7qG2_000_inline_SetSensorLowspeed_inline_SetSensorUltrasonic_inline_canape	1	1	269	1	4
92	__SetSensorMode_7qG2_mode_7qG2_000_inline_SetSensorLowspeed_inline_SetSensorUltrasonic_inline_canape	1	1	270	1	4
93	__SetSensorLowspeed_7qG2_port_7qG2_000_inline_SetSensorUltrasonic_inline_canape	1	1	271	1	8
94	__SetSensorUltrasonic_7qG2_port_7qG2_000_inline_canape	1	1	272	1	2
95	__SetSensorType_7qG2_port_7qG2_000_inline_SetSensorLowspeed_inline_SetSensorUltrasonic_inline_canape	1	1	273	1	4
96	__SetSensorLowspeed_7qG2_bIsPowered_7qG2_000_inline_SetSensorUltrasonic_inline_canape	1	1	274	1	4
97	__SetSensorMode_7qG2_mode_7qG2_000_inline_SetSensorLowspeed_inline_SetSensorUltrasonic_inline_locaux	1	1	275	1	2
98	__SetSensorType_7qG2_port_7qG2_000_inline_main	1	1	276	1	6
99	____initialize_global_data_return	1	1	277	1	3
100	__SetSensorUltrasonic_7qG2_port_7qG2_000_inline_main	1	1	278	1	2
101	__SetSensorType_7qG2_type_7qG2_000_inline_main	1	1	279	1	6
102	__SetSensorColorFull_7qG2_port_7qG2_000_inline_cle	1	1	280	1	8
103	__SetSensorMode_7qG2_port_7qG2_000_inline_SetSensorLowspeed_inline_SetSensorUltrasonic_inline_cle	1	1	281	1	2
104	__SetSensorType_7qG2_type_7qG2_000_inline_SetSensorLowspeed_inline_SetSensorUltrasonic_inline_cle	1	1	282	1	2
105	__ResetSensor_7qG2_port_7qG2_000_inline_SetSensorLowspeed_inline_SetSensorUltrasonic_inline_cle	1	1	283	1	2
106	__SetSensorMode_7qG2_mode_7qG2_000_inline_SetSensorLowspeed_inline_SetSensorUltrasonic_inline_cle	1	1	284	1	2
107	__SetSensorLowspeed_7qG2_port_7qG2_000_inline_SetSensorUltrasonic_inline_main	1	1	285	1	8
108	__SetSensorColorFull_7qG2_port_7qG2_000_inline_main	1	1	286	1	12
109	__ResetSensor_7qG2_port_7qG2_000_inline_SetSensorLowspeed_inline_SetSensorUltrasonic_inline_main	1	1	287	1	4
110	__SetSensorTouch_7qG2_port_7qG2_000_inline_main	1	1	288	1	4
111	__OnRev_Tmp	2	1	289	1	56
112	__SetSensorMode_7qG2_mode_7qG2_000_inline_SetSensorLowspeed_inline_SetSensorUltrasonic_inline_main	1	1	290	1	4
113	__SetSensorType_7qG2_port_7qG2_000_inline_SetSensorLowspeed_inline_SetSensorUltrasonic_inline_main	1	1	291	1	4
114	__SetSensorLowspeed_7qG2_bIsPowered_7qG2_000_inline_SetSensorUltrasonic_inline_main	1	1	292	1	4
115	__SetSensorMode_7qG2_port_7qG2_000_inline_SetSensorLowspeed_inline_SetSensorUltrasonic_inline_main	1	1	293	1	4
116	__SetSensorType_7qG2_type_7qG2_000_inline_SetSensorLowspeed_inline_SetSensorUltrasonic_inline_main	1	1	294	1	4
117	__SetSensorLowspeed_7qG2_bIsPowered_7qG2_000_inline_SetSensorUltrasonic_inline_humeur	1	1	295	1	2
118	__SetSensorLowspeed_7qG2_port_7qG2_000_inline_SetSensorUltrasonic_inline_humeur	1	1	296	1	4
119	__SetSensorType_7qG2_type_7qG2_000_inline_SetSensorLowspeed_inline_SetSensorUltrasonic_inline_humeur	1	1	297	1	2
120	__SetSensorType_7qG2_port_7qG2_000_inline_SetSensorLowspeed_inline_SetSensorUltrasonic_inline_humeur	1	1	298	1	2
121	__SetSensorType_7qG2_type_7qG2_000_inline_humeur	1	1	299	1	4
122	__SetSensorColorFull_7qG2_port_7qG2_000_inline_locaux	1	1	300	1	4
123	__ResetSensor_7qG2_port_7qG2_000_inline_SetSensorLowspeed_inline_SetSensorUltrasonic_inline_locaux	1	1	301	1	2
124	__SetSensorType_7qG2_port_7qG2_000_inline_humeur	1	1	302	1	4
125	__humeur_return	1	1	303	1	3
126	__SetSensorMode_7qG2_port_7qG2_000_inline_SetSensorLowspeed_inline_SetSensorUltrasonic_inline_humeur	1	1	304	1	2
127	__SetSensorLowspeed_7qG2_port_7qG2_000_inline_SetSensorUltrasonic_inline_cle	1	1	305	1	4
128	__SetSensorType_7qG2_type_7qG2_000_inline_cle	1	1	306	1	4
129	__SetSensorType_7qG2_port_7qG2_000_inline_SetSensorLowspeed_inline_SetSensorUltrasonic_inline_cle	1	1	307	1	2
130	__SetSensorLowspeed_7qG2_bIsPowered_7qG2_000_inline_SetSensorUltrasonic_inline_cle	1	1	308	1	2
131	__SetSensorType_7qG2_port_7qG2_000_inline_cle	1	1	309	1	4
132	__ResetSensor_7qG2_port_7qG2_000_inline_SetSensorLowspeed_inline_SetSensorUltrasonic_inline_humeur	1	1	310	1	2
133	__SetSensorMode_7qG2_mode_7qG2_000_inline_SetSensorLowspeed_inline_SetSensorUltrasonic_inline_humeur	1	1	311	1	2
134	__cle_return	1	1	312	1	3
135	__SetSensorColorFull_7qG2_port_7qG2_000_inline_humeur	1	1	313	1	4
136	__RLSBytesCount2	1	1	314	1	18
137	__RLSBResult2	2	1	315	1	7
138	__constVal2	2	0	316	1	5
139	__RLSBIterations2	1	1	317	1	4
140	__constVal15	2	0	318	1	44
141	__rotate_theRVI1	1	1	319	1	10
142	__rotate_theRVP1	1	1	320	1	10
143	____ReadLSBytes2_return	1	1	321	1	14
144	____ReadLSBytes3_return	1	1	322	1	11
145	__constVal13	2	0	323	1	9
146	__constVal10	2	0	324	1	1
147	__rotate_theRM1	1	1	325	1	4
148	__constValNeg100	2	0	326	1	2
149	__RLSBResult3	2	1	327	1	7
150	__rotate_theRS1	1	1	328	1	3
151	__RLSBIterations3	1	1	329	1	4
152	__RLSBytesCount3	1	1	330	1	15
153	____RotateMotor1_return	1	1	331	1	11
154	__constVal50	2	0	332	1	2
155	__constVal3	2	0	333	1	90
156	____RotateMotor1_sign_tmp	2	1	334	1	4
157	__constVal32	2	0	335	1	289
158	____RotateMotor0_sign_tmp	2	1	336	1	4
159	__constVal0	2	1	337	1	397
160	__constVal1	2	0	338	1	83
161	__constVal5	2	0	339	1	1
162	__rotate_thePower1	2	1	340	1	4
163	__rotate_theTurnPct1	2	1	341	1	4
164	__rotate_theRVD1	1	1	342	1	10
165	__rotate_rs1	1	1	343	1	2
166	__ResetSensorPort	1	1	344	1	19
167	____RotateMotor0_return	1	1	345	1	11
168	____ResetSensorSubroutine_return	1	1	346	1	19
169	__ResetSensorTmp	1	1	347	1	2
170	__PFTmp	1	1	348	1	1
171	__rotate_power1	1	1	349	1	12
172	__rotate_theRM0	1	1	350	1	4
173	__rotate_theTurnPct0	2	1	351	1	4
174	__zfsuivre_ligne	1	1	352	1	6
175	__rotate_theUF0	1	1	353	1	6
176	__rotate_theOM0	1	1	354	1	7
177	__zfmain	1	1	355	1	30
178	__rotate_theRS0	1	1	356	1	3
179	__rotate_theRVD0	1	1	357	1	10
180	__rotate_thePower0	2	1	358	1	4
181	__rotate_rs0	1	1	359	1	2
182	__rotate_theRVI0	1	1	360	1	10
183	__rotate_theRVP0	1	1	361	1	10
184	__zfSetSensorLowspeed_inline_SetSensorUltrasonic	1	1	362	1	14
185	__zfrouge_detecte_inline_suivre_ligne	1	1	363	1	6
186	__zflocaux	1	1	364	1	18
187	__rotate_stop0	1	1	365	1	10
188	__zfcanape	1	1	366	1	26
189	__zfcle	1	1	367	1	19
190	__rotate_turnpct1	2	1	368	1	11
191	__rotate_theOM1	1	1	369	1	7
192	__rotate_firstPort0	1	1	370	1	5
193	__rotate_sync0	1	1	371	1	10
194	__rotate_theUF1	1	1	372	1	6
195	__zfhumeur	1	1	373	1	15
196	__rotate_turnpct0	2	1	374	1	11
197	__rotate_firstPort1	1	1	375	1	5
198	__rotate_sync1	1	1	376	1	10
199	__rotate_stop1	1	1	377	1	10
200	__zfdepart	1	1	378	1	12
201	__CLSWArgs2	8	0	4	12	5
202	__CLSWArgs2.Result	2	1	380	1	5
203	__CLSWArgs2.Port	1	1	381	1	5
204	__CLSWArgs2.Buffer	7	0	382	4	5
205	__CLSWArgs2.Buffer.Buffer_type	1	0	0	1	0
206	__CLSWArgs2.ReturnLen	1	1	384	1	5
207	__main_7qG2_csr_7qG2_001	8	0	7	20	13
208	__main_7qG2_csr_7qG2_001.Result	2	1	388	1	13
209	__main_7qG2_csr_7qG2_001.Port	1	1	389	1	13
210	__main_7qG2_csr_7qG2_001.ColorValue	4	1	390	2	13
211	__main_7qG2_csr_7qG2_001.RawArray	7	0	392	4	13
212	__main_7qG2_csr_7qG2_001.RawArray.RawArray_type	3	0	0	2	0
213	__main_7qG2_csr_7qG2_001.NormalizedArray	7	0	394	4	13
214	__main_7qG2_csr_7qG2_001.NormalizedArray.NormalizedArray_type	3	0	0	2	0
215	__main_7qG2_csr_7qG2_001.ScaledArray	7	0	396	4	13
216	__main_7qG2_csr_7qG2_001.ScaledArray.ScaledArray_type	4	0	0	2	0
217	__main_7qG2_csr_7qG2_001.Invalid	1	1	398	1	13
218	__rouge_detecte_7qG2_csr_7qG2_000_inline_suivre_ligne	8	0	7	20	8
219	__rouge_detecte_7qG2_csr_7qG2_000_inline_suivre_ligne.Result	2	1	400	1	8
220	__rouge_detecte_7qG2_csr_7qG2_000_inline_suivre_ligne.Port	1	1	401	1	8
221	__rouge_detecte_7qG2_csr_7qG2_000_inline_suivre_ligne.ColorValue	4	1	402	2	8
222	__rouge_detecte_7qG2_csr_7qG2_000_inline_suivre_ligne.RawArray	7	0	404	4	8
223	__rouge_detecte_7qG2_csr_7qG2_000_inline_suivre_ligne.RawArray.RawArray_type	3	0	0	2	0
224	__rouge_detecte_7qG2_csr_7qG2_000_inline_suivre_ligne.NormalizedArray	7	0	406	4	8
225	__rouge_detecte_7qG2_csr_7qG2_000_inline_suivre_ligne.NormalizedArray.NormalizedArray_type	3	0	0	2	0
226	__rouge_detecte_7qG2_csr_7qG2_000_inline_suivre_ligne.ScaledArray	7	0	408	4	8
227	__rouge_detecte_7qG2_csr_7qG2_000_inline_suivre_ligne.ScaledArray.ScaledArray_type	4	0	0	2	0
228	__rouge_detecte_7qG2_csr_7qG2_000_inline_suivre_ligne.Invalid	1	1	410	1	8
229	__CLSCSArgs2	8	0	3	4	4
230	__CLSCSArgs2.Result	2	1	412	1	4
231	__CLSCSArgs2.Port	1	1	413	1	4
232	__CLSCSArgs2.BytesReady	1	1	414	1	4
233	__PointOutArgs	8	0	3	12	8
234	__PointOutArgs.Result	2	1	416	1	8
235	__PointOutArgs.Location	8	0	2	4	8
236	__PointOutArgs.Location.X	4	1	420	2	8
237	__PointOutArgs.Location.Y	4	1	422	2	8
238	__PointOutArgs.Options	5	1	424	4	8
239	__TextOutArgs	8	0	4	16	42
240	__TextOutArgs.Result	2	1	428	1	42
241	__TextOutArgs.Location	8	0	2	4	42
242	__TextOutArgs.Location.X	4	1	432	2	42
243	__TextOutArgs.Location.Y	4	1	434	2	42
244	__TextOutArgs.Text	7	0	436	4	42
245	__TextOutArgs.Text.Text_type	1	0	0	1	0
246	__TextOutArgs.Options	5	1	440	4	42
247	__humeur_7qG2_csr_7qG2_001	8	0	7	20	4
248	__humeur_7qG2_csr_7qG2_001.Result	2	1	444	1	4
249	__humeur_7qG2_csr_7qG2_001.Port	1	1	445	1	4
250	__humeur_7qG2_csr_7qG2_001.ColorValue	4	1	446	2	4
251	__humeur_7qG2_csr_7qG2_001.RawArray	7	0	448	4	4
252	__humeur_7qG2_csr_7qG2_001.RawArray.RawArray_type	3	0	0	2	0
253	__humeur_7qG2_csr_7qG2_001.NormalizedArray	7	0	450	4	4
254	__humeur_7qG2_csr_7qG2_001.NormalizedArray.NormalizedArray_type	3	0	0	2	0
255	__humeur_7qG2_csr_7qG2_001.ScaledArray	7	0	452	4	4
256	__humeur_7qG2_csr_7qG2_001.ScaledArray.ScaledArray_type	4	0	0	2	0
257	__humeur_7qG2_csr_7qG2_001.Invalid	1	1	454	1	4
258	__SPTArgs	8	0	5	8	48
259	__SPTArgs.Result	2	1	456	1	48
260	__SPTArgs.Frequency	3	1	458	2	48
261	__SPTArgs.Duration	3	1	460	2	48
262	__SPTArgs.Loop	1	1	462	1	48
263	__SPTArgs.Volume	1	1	463	1	48
264	__locaux_7qG2_csr_7qG2_001	8	0	7	20	4
265	__locaux_7qG2_csr_7qG2_001.Result	2	1	464	1	4
266	__locaux_7qG2_csr_7qG2_001.Port	1	1	465	1	4
267	__locaux_7qG2_csr_7qG2_001.ColorValue	4	1	466	2	4
268	__locaux_7qG2_csr_7qG2_001.RawArray	7	0	468	4	4
269	__locaux_7qG2_csr_7qG2_001.RawArray.RawArray_type	3	0	0	2	0
270	__locaux_7qG2_csr_7qG2_001.NormalizedArray	7	0	470	4	4
271	__locaux_7qG2_csr_7qG2_001.NormalizedArray.NormalizedArray_type	3	0	0	2	0
272	__locaux_7qG2_csr_7qG2_001.ScaledArray	7	0	472	4	4
273	__locaux_7qG2_csr_7qG2_001.ScaledArray.ScaledArray_type	4	0	0	2	0
274	__locaux_7qG2_csr_7qG2_001.Invalid	1	1	474	1	4
275	__CLSCSArgs3	8	0	3	4	4
276	__CLSCSArgs3.Result	2	1	476	1	4
277	__CLSCSArgs3.Port	1	1	477	1	4
278	__CLSCSArgs3.BytesReady	1	1	478	1	4
279	__CLSRArgs2	8	0	4	12	5
280	__CLSRArgs2.Result	2	1	480	1	5
281	__CLSRArgs2.Port	1	1	481	1	5
282	__CLSRArgs2.Buffer	7	0	482	4	5
283	__CLSRArgs2.Buffer.Buffer_type	1	0	0	1	0
284	__CLSRArgs2.BufferLen	1	1	484	1	5
285	__cle_7qG2_csr_7qG2_001	8	0	7	20	9
286	__cle_7qG2_csr_7qG2_001.Result	2	1	488	1	9
287	__cle_7qG2_csr_7qG2_001.Port	1	1	489	1	9
288	__cle_7qG2_csr_7qG2_001.ColorValue	4	1	490	2	9
289	__cle_7qG2_csr_7qG2_001.RawArray	7	0	492	4	9
290	__cle_7qG2_csr_7qG2_001.RawArray.RawArray_type	3	0	0	2	0
291	__cle_7qG2_csr_7qG2_001.NormalizedArray	7	0	494	4	9
292	__cle_7qG2_csr_7qG2_001.NormalizedArray.NormalizedArray_type	3	0	0	2	0
293	__cle_7qG2_csr_7qG2_001.ScaledArray	7	0	496	4	9
294	__cle_7qG2_csr_7qG2_001.ScaledArray.ScaledArray_type	4	0	0	2	0
295	__cle_7qG2_csr_7qG2_001.Invalid	1	1	498	1	9
296	__CLSRArgs3	8	0	4	12	5
297	__CLSRArgs3.Result	2	1	500	1	5
298	__CLSRArgs3.Port	1	1	501	1	5
299	__CLSRArgs3.Buffer	7	0	502	4	5
300	__CLSRArgs3.Buffer.Buffer_type	1	0	0	1	0
301	__CLSRArgs3.BufferLen	1	1	504	1	5
302	__CLSWArgs3	8	0	4	12	5
303	__CLSWArgs3.Result	2	1	508	1	5
304	__CLSWArgs3.Port	1	1	509	1	5
305	__CLSWArgs3.Buffer	7	0	510	4	5
306	__CLSWArgs3.Buffer.Buffer_type	1	0	0	1	0
307	__CLSWArgs3.ReturnLen	1	1	512	1	5
308	__RLSLastGoodRead3	7	0	514	4	2
309	__RLSLastGoodRead3.__RLSLastGoodRead3_type	1	0	0	1	0
310	__RLSReadBuf3	7	0	516	4	24
311	__RLSReadBuf3.__RLSReadBuf3_type	1	0	0	1	0
312	__OUT_AB	7	0	518	4	26
313	__OUT_AB.__OUT_AB_type	1	0	0	1	0
314	__RLSLastGoodRead2	7	0	520	4	2
315	__RLSLastGoodRead2.__RLSLastGoodRead2_type	1	0	0	1	0
316	__RLSBbufLSWrite1	7	0	522	4	21
317	__RLSBbufLSWrite1.__RLSBbufLSWrite1_type	1	0	0	1	0
318	__rotate_ports1	7	0	524	4	14
319	__rotate_ports1.__rotate_ports1_type	1	0	0	1	0
320	__RLSReadBuf2	7	0	526	4	30
321	__RLSReadBuf2.__RLSReadBuf2_type	1	0	0	1	0
322	__rotate_ports0	7	0	528	4	14
323	__rotate_ports0.__rotate_ports0_type	1	0	0	1	0
#SOURCES
Clump	Line	PC	Source
0	420	0	#line 420 "D:\Labo - Robotique\Compet'\Projet-Compet.nxc"
0	421	0		subcall __initialize_global_data, ____initialize_global_data_return
0	420	2	#line 420 "D:\Labo - Robotique\Compet'\Projet-Compet.nxc"
0	420	2	#line 420 "D:\Labo - Robotique\Compet'\Projet-Compet.nxc"
0	421	2		set __SetSensorType_7qG2_port_7qG2_000_inline_main, 0
0	420	5	#line 420 "D:\Labo - Robotique\Compet'\Projet-Compet.nxc"
0	420	5	#line 420 "D:\Labo - Robotique\Compet'\Projet-Compet.nxc"
0	421	5		set __SetSensorType_7qG2_type_7qG2_000_inline_main, 13
0	420	8	#line 420 "D:\Labo - Robotique\Compet'\Projet-Compet.nxc"
0	3663	8	#line 3663 "NXCDefs.h"
0	3664	8		setin __SetSensorType_7qG2_type_7qG2_000_inline_main, __SetSensorType_7qG2_port_7qG2_000_inline_main, 0
0	3663	12	#line 3663 "NXCDefs.h"
0	421	12	#line 421 "D:\Labo - Robotique\Compet'\Projet-Compet.nxc"
0	421	12	#line 421 "D:\Labo - Robotique\Compet'\Projet-Compet.nxc"
0	422	12		set __SetSensorType_7qG2_port_7qG2_000_inline_main, 1
0	421	15	#line 421 "D:\Labo - Robotique\Compet'\Projet-Compet.nxc"
0	421	15	#line 421 "D:\Labo - Robotique\Compet'\Projet-Compet.nxc"
0	422	15		set __SetSensorType_7qG2_type_7qG2_000_inline_main, 1
0	421	18	#line 421 "D:\Labo - Robotique\Compet'\Projet-Compet.nxc"
0	3663	18	#line 3663 "NXCDefs.h"
0	3664	18		setin __SetSensorType_7qG2_type_7qG2_000_inline_main, __SetSensorType_7qG2_port_7qG2_000_inline_main, 0
0	3663	22	#line 3663 "NXCDefs.h"
0	422	22	#line 422 "D:\Labo - Robotique\Compet'\Projet-Compet.nxc"
0	422	22	#line 422 "D:\Labo - Robotique\Compet'\Projet-Compet.nxc"
0	423	22		set __SetSensorUltrasonic_7qG2_port_7qG2_000_inline_main, 2
0	422	25	#line 422 "D:\Labo - Robotique\Compet'\Projet-Compet.nxc"
0	3768	25	#line 3768 "NXCDefs.h"
0	3769	25		mov __SetSensorLowspeed_7qG2_port_7qG2_000_inline_SetSensorUltrasonic_inline_main, __constVal2
0	3768	27	#line 3768 "NXCDefs.h"
0	3768	27	#line 3768 "NXCDefs.h"
0	3769	27		mov __SetSensorLowspeed_7qG2_bIsPowered_7qG2_000_inline_SetSensorUltrasonic_inline_main, __constVal1
0	3758	29	#line 3758 "NXCDefs.h"
0	3759	29		mov __SetSensorType_7qG2_port_7qG2_000_inline_SetSensorLowspeed_inline_SetSensorUltrasonic_inline_main, __SetSensorLowspeed_7qG2_port_7qG2_000_inline_SetSensorUltrasonic_inline_main
0	3758	31	#line 3758 "NXCDefs.h"
0	3758	31	#line 3758 "NXCDefs.h"
0	3759	31		mov __DU0SetSensorLowspeed_inline_SetSensorUltrasonic, __SetSensorLowspeed_7qG2_bIsPowered_7qG2_000_inline_SetSensorUltrasonic_inline_main
0	3758	33	#line 3758 "NXCDefs.h"
0	3759	33		tst 5, __zfSetSensorLowspeed_inline_SetSensorUltrasonic, __DU0SetSensorLowspeed_inline_SetSensorUltrasonic
0	3758	36	#line 3758 "NXCDefs.h"
0	3759	36		brtst 4, __001__006__NXC_Label_36, __zfSetSensorLowspeed_inline_SetSensorUltrasonic
0	3758	39	#line 3758 "NXCDefs.h"
0	3759	39		set __D0SetSensorLowspeed_inline_SetSensorUltrasonic, 11
0	3758	42	#line 3758 "NXCDefs.h"
0	3759	42		jmp __001__006__NXC_Label_37
0	3758	44	#line 3758 "NXCDefs.h"
0	3759	44		set __D0SetSensorLowspeed_inline_SetSensorUltrasonic, 10
0	3758	47	#line 3758 "NXCDefs.h"
0	3759	47		mov __SetSensorType_7qG2_type_7qG2_000_inline_SetSensorLowspeed_inline_SetSensorUltrasonic_inline_main, __D0SetSensorLowspeed_inline_SetSensorUltrasonic
0	3663	49	#line 3663 "NXCDefs.h"
0	3664	49		setin __SetSensorType_7qG2_type_7qG2_000_inline_SetSensorLowspeed_inline_SetSensorUltrasonic_inline_main, __SetSensorType_7qG2_port_7qG2_000_inline_SetSensorLowspeed_inline_SetSensorUltrasonic_inline_main, 0
0	3663	53	#line 3663 "NXCDefs.h"
0	3759	53	#line 3759 "NXCDefs.h"
0	3759	53	#line 3759 "NXCDefs.h"
0	3760	53		mov __SetSensorMode_7qG2_port_7qG2_000_inline_SetSensorLowspeed_inline_SetSensorUltrasonic_inline_main, __SetSensorLowspeed_7qG2_port_7qG2_000_inline_SetSensorUltrasonic_inline_main
0	3759	55	#line 3759 "NXCDefs.h"
0	3759	55	#line 3759 "NXCDefs.h"
0	3760	55		set __SetSensorMode_7qG2_mode_7qG2_000_inline_SetSensorLowspeed_inline_SetSensorUltrasonic_inline_main, 0
0	3759	58	#line 3759 "NXCDefs.h"
0	3676	58	#line 3676 "NXCDefs.h"
0	3677	58		setin __SetSensorMode_7qG2_mode_7qG2_000_inline_SetSensorLowspeed_inline_SetSensorUltrasonic_inline_main, __SetSensorMode_7qG2_port_7qG2_000_inline_SetSensorLowspeed_inline_SetSensorUltrasonic_inline_main, 1
0	3676	62	#line 3676 "NXCDefs.h"
0	3760	62	#line 3760 "NXCDefs.h"
0	3760	62	#line 3760 "NXCDefs.h"
0	3761	62		mov __ResetSensor_7qG2_port_7qG2_000_inline_SetSensorLowspeed_inline_SetSensorUltrasonic_inline_main, __SetSensorLowspeed_7qG2_port_7qG2_000_inline_SetSensorUltrasonic_inline_main
0	3760	64	#line 3760 "NXCDefs.h"
0	3694	64	#line 3694 "NXCDefs.h"
0	3695	64	#pragma macro 4
0	3695	64		acquire __ResetSensorMutex
0	3695	65		mov __ResetSensorPort, __ResetSensor_7qG2_port_7qG2_000_inline_SetSensorLowspeed_inline_SetSensorUltrasonic_inline_main
0	3695	67		subcall __ResetSensorSubroutine, ____ResetSensorSubroutine_return
0	3695	70		release __ResetSensorMutex
0	8325	71	#line 8325 "NXCDefs.h"
0	3694	71	#line 3694 "NXCDefs.h"
0	3761	71	#line 3761 "NXCDefs.h"
0	3768	71	#line 3768 "NXCDefs.h"
0	423	71	#line 423 "D:\Labo - Robotique\Compet'\Projet-Compet.nxc"
0	423	71	#line 423 "D:\Labo - Robotique\Compet'\Projet-Compet.nxc"
0	424	71		set __SetSensorUltrasonic_7qG2_port_7qG2_000_inline_main, 3
0	423	74	#line 423 "D:\Labo - Robotique\Compet'\Projet-Compet.nxc"
0	3768	74	#line 3768 "NXCDefs.h"
0	3769	74		mov __SetSensorLowspeed_7qG2_port_7qG2_000_inline_SetSensorUltrasonic_inline_main, __constVal3
0	3768	76	#line 3768 "NXCDefs.h"
0	3768	76	#line 3768 "NXCDefs.h"
0	3769	76		mov __SetSensorLowspeed_7qG2_bIsPowered_7qG2_000_inline_SetSensorUltrasonic_inline_main, __constVal1
0	3758	78	#line 3758 "NXCDefs.h"
0	3759	78		mov __SetSensorType_7qG2_port_7qG2_000_inline_SetSensorLowspeed_inline_SetSensorUltrasonic_inline_main, __SetSensorLowspeed_7qG2_port_7qG2_000_inline_SetSensorUltrasonic_inline_main
0	3758	80	#line 3758 "NXCDefs.h"
0	3758	80	#line 3758 "NXCDefs.h"
0	3759	80		mov __DU0SetSensorLowspeed_inline_SetSensorUltrasonic, __SetSensorLowspeed_7qG2_bIsPowered_7qG2_000_inline_SetSensorUltrasonic_inline_main
0	3758	82	#line 3758 "NXCDefs.h"
0	3759	82		tst 5, __zfSetSensorLowspeed_inline_SetSensorUltrasonic, __DU0SetSensorLowspeed_inline_SetSensorUltrasonic
0	3758	85	#line 3758 "NXCDefs.h"
0	3759	85		brtst 4, __001__007__NXC_Label_36, __zfSetSensorLowspeed_inline_SetSensorUltrasonic
0	3758	88	#line 3758 "NXCDefs.h"
0	3759	88		set __D0SetSensorLowspeed_inline_SetSensorUltrasonic, 11
0	3758	91	#line 3758 "NXCDefs.h"
0	3759	91		jmp __001__007__NXC_Label_37
0	3758	93	#line 3758 "NXCDefs.h"
0	3759	93		set __D0SetSensorLowspeed_inline_SetSensorUltrasonic, 10
0	3758	96	#line 3758 "NXCDefs.h"
0	3759	96		mov __SetSensorType_7qG2_type_7qG2_000_inline_SetSensorLowspeed_inline_SetSensorUltrasonic_inline_main, __D0SetSensorLowspeed_inline_SetSensorUltrasonic
0	3663	98	#line 3663 "NXCDefs.h"
0	3664	98		setin __SetSensorType_7qG2_type_7qG2_000_inline_SetSensorLowspeed_inline_SetSensorUltrasonic_inline_main, __SetSensorType_7qG2_port_7qG2_000_inline_SetSensorLowspeed_inline_SetSensorUltrasonic_inline_main, 0
0	3663	102	#line 3663 "NXCDefs.h"
0	3759	102	#line 3759 "NXCDefs.h"
0	3759	102	#line 3759 "NXCDefs.h"
0	3760	102		mov __SetSensorMode_7qG2_port_7qG2_000_inline_SetSensorLowspeed_inline_SetSensorUltrasonic_inline_main, __SetSensorLowspeed_7qG2_port_7qG2_000_inline_SetSensorUltrasonic_inline_main
0	3759	104	#line 3759 "NXCDefs.h"
0	3759	104	#line 3759 "NXCDefs.h"
0	3760	104		set __SetSensorMode_7qG2_mode_7qG2_000_inline_SetSensorLowspeed_inline_SetSensorUltrasonic_inline_main, 0
0	3759	107	#line 3759 "NXCDefs.h"
0	3676	107	#line 3676 "NXCDefs.h"
0	3677	107		setin __SetSensorMode_7qG2_mode_7qG2_000_inline_SetSensorLowspeed_inline_SetSensorUltrasonic_inline_main, __SetSensorMode_7qG2_port_7qG2_000_inline_SetSensorLowspeed_inline_SetSensorUltrasonic_inline_main, 1
0	3676	111	#line 3676 "NXCDefs.h"
0	3760	111	#line 3760 "NXCDefs.h"
0	3760	111	#line 3760 "NXCDefs.h"
0	3761	111		mov __ResetSensor_7qG2_port_7qG2_000_inline_SetSensorLowspeed_inline_SetSensorUltrasonic_inline_main, __SetSensorLowspeed_7qG2_port_7qG2_000_inline_SetSensorUltrasonic_inline_main
0	3760	113	#line 3760 "NXCDefs.h"
0	3694	113	#line 3694 "NXCDefs.h"
0	3695	113	#pragma macro 4
0	3695	113		acquire __ResetSensorMutex
0	3695	114		mov __ResetSensorPort, __ResetSensor_7qG2_port_7qG2_000_inline_SetSensorLowspeed_inline_SetSensorUltrasonic_inline_main
0	3695	116		subcall __ResetSensorSubroutine, ____ResetSensorSubroutine_return
0	3695	119		release __ResetSensorMutex
0	8399	120	#line 8399 "NXCDefs.h"
0	3694	120	#line 3694 "NXCDefs.h"
0	3761	120	#line 3761 "NXCDefs.h"
0	3768	120	#line 3768 "NXCDefs.h"
0	424	120	#line 424 "D:\Labo - Robotique\Compet'\Projet-Compet.nxc"
0	424	120	#line 424 "D:\Labo - Robotique\Compet'\Projet-Compet.nxc"
0	424	120	#line 424 "D:\Labo - Robotique\Compet'\Projet-Compet.nxc"
0	426	120	#line 426 "D:\Labo - Robotique\Compet'\Projet-Compet.nxc"
0	426	120	#line 426 "D:\Labo - Robotique\Compet'\Projet-Compet.nxc"
0	427	120	#line 427 "D:\Labo - Robotique\Compet'\Projet-Compet.nxc"
0	428	120		set __D0main, 1
0	428	123	#line 428 "D:\Labo - Robotique\Compet'\Projet-Compet.nxc"
0	429	123		tst 5, __zfmain, __D0main
0	428	126	#line 428 "D:\Labo - Robotique\Compet'\Projet-Compet.nxc"
0	429	126		brtst 4, __NXC_Label_1082, __zfmain
0	428	129	#line 428 "D:\Labo - Robotique\Compet'\Projet-Compet.nxc"
0	429	129		set __signed_stack_001main, 0
0	428	132	#line 428 "D:\Labo - Robotique\Compet'\Projet-Compet.nxc"
0	428	132	#line 428 "D:\Labo - Robotique\Compet'\Projet-Compet.nxc"
0	429	132		set __signed_stack_002main, 40
0	428	135	#line 428 "D:\Labo - Robotique\Compet'\Projet-Compet.nxc"
0	428	135	#line 428 "D:\Labo - Robotique\Compet'\Projet-Compet.nxc"
0	429	135		mov __D0main, deportation
0	429	137	#line 429 "D:\Labo - Robotique\Compet'\Projet-Compet.nxc"
0	430	137		acquire __TextOutMutex
0	429	138	#line 429 "D:\Labo - Robotique\Compet'\Projet-Compet.nxc"
0	430	138		mov __TextOutArgs.Location.X, __signed_stack_001main
0	429	141	#line 429 "D:\Labo - Robotique\Compet'\Projet-Compet.nxc"
0	430	141		mov __TextOutArgs.Location.Y, __signed_stack_002main
0	429	144	#line 429 "D:\Labo - Robotique\Compet'\Projet-Compet.nxc"
0	430	144		set __TextOutArgs.Options, 0
0	429	147	#line 429 "D:\Labo - Robotique\Compet'\Projet-Compet.nxc"
0	430	147		numtostr __TextOutArgs.Text, __D0main
0	429	150	#line 429 "D:\Labo - Robotique\Compet'\Projet-Compet.nxc"
0	430	150		syscall 13, __TextOutArgs
0	429	153	#line 429 "D:\Labo - Robotique\Compet'\Projet-Compet.nxc"
0	430	153		mov __D0main, __TextOutArgs.Result
0	429	156	#line 429 "D:\Labo - Robotique\Compet'\Projet-Compet.nxc"
0	430	156		release __TextOutMutex
0	429	157	#line 429 "D:\Labo - Robotique\Compet'\Projet-Compet.nxc"
0	429	157	#line 429 "D:\Labo - Robotique\Compet'\Projet-Compet.nxc"
0	430	157		set __SetSensorColorFull_7qG2_port_7qG2_000_inline_main, 0
0	429	160	#line 429 "D:\Labo - Robotique\Compet'\Projet-Compet.nxc"
0	3802	160	#line 3802 "NXCDefs.h"
0	3803	160	#pragma macro 6
0	3803	160		setin __constVal13, __SetSensorColorFull_7qG2_port_7qG2_000_inline_main, 0
0	3803	164		setin __constVal0, __SetSensorColorFull_7qG2_port_7qG2_000_inline_main, 1
0	3803	168		acquire __ResetSensorMutex
0	3803	169		mov __ResetSensorPort, __SetSensorColorFull_7qG2_port_7qG2_000_inline_main
0	3803	171		subcall __ResetSensorSubroutine, ____ResetSensorSubroutine_return
0	3803	174		release __ResetSensorMutex
0	8497	175	#line 8497 "NXCDefs.h"
0	3802	175	#line 3802 "NXCDefs.h"
0	430	175	#line 430 "D:\Labo - Robotique\Compet'\Projet-Compet.nxc"
0	432	175	#line 432 "D:\Labo - Robotique\Compet'\Projet-Compet.nxc"
0	433	175		set __main_7qG2_csr_7qG2_001.Port, 0
0	432	178	#line 432 "D:\Labo - Robotique\Compet'\Projet-Compet.nxc"
0	432	178	#line 432 "D:\Labo - Robotique\Compet'\Projet-Compet.nxc"
0	433	178	#line 433 "D:\Labo - Robotique\Compet'\Projet-Compet.nxc"
0	434	178	#pragma macro 4
0	434	178	#line 434 "D:\Labo - Robotique\Compet'\Projet-Compet.nxc"
0	434	178		syscall 34, __main_7qG2_csr_7qG2_001
0	432	181	#line 432 "D:\Labo - Robotique\Compet'\Projet-Compet.nxc"
0	432	181	#line 432 "D:\Labo - Robotique\Compet'\Projet-Compet.nxc"
0	432	181	#line 432 "D:\Labo - Robotique\Compet'\Projet-Compet.nxc"
0	432	181	#line 432 "D:\Labo - Robotique\Compet'\Projet-Compet.nxc"
0	433	181	#line 433 "D:\Labo - Robotique\Compet'\Projet-Compet.nxc"
0	433	181	#line 433 "D:\Labo - Robotique\Compet'\Projet-Compet.nxc"
0	433	181	#line 433 "D:\Labo - Robotique\Compet'\Projet-Compet.nxc"
0	434	181		mov __signed_stack_001main, __main_7qG2_csr_7qG2_001.Result
0	433	184	#line 433 "D:\Labo - Robotique\Compet'\Projet-Compet.nxc"
0	434	184	#line 434 "D:\Labo - Robotique\Compet'\Projet-Compet.nxc"
0	435	184		set __D0main, 0
0	434	187	#line 434 "D:\Labo - Robotique\Compet'\Projet-Compet.nxc"
0	435	187		cmp 4, __zfmain, __signed_stack_001main, __D0main
0	434	191	#line 434 "D:\Labo - Robotique\Compet'\Projet-Compet.nxc"
0	435	191		mov __D0main, __zfmain
0	435	194	#line 435 "D:\Labo - Robotique\Compet'\Projet-Compet.nxc"
0	436	194		brtst 4, __NXC_Label_1097, __zfmain
0	435	197	#line 435 "D:\Labo - Robotique\Compet'\Projet-Compet.nxc"
0	436	197		set __signed_stack_001main, 0
0	435	200	#line 435 "D:\Labo - Robotique\Compet'\Projet-Compet.nxc"
0	435	200	#line 435 "D:\Labo - Robotique\Compet'\Projet-Compet.nxc"
0	436	200		set __signed_stack_002main, 48
0	435	203	#line 435 "D:\Labo - Robotique\Compet'\Projet-Compet.nxc"
0	435	203	#line 435 "D:\Labo - Robotique\Compet'\Projet-Compet.nxc"
0	436	203		mov __D0main, __main_7qG2_csr_7qG2_001.ColorValue
0	436	206	#line 436 "D:\Labo - Robotique\Compet'\Projet-Compet.nxc"
0	437	206		acquire __TextOutMutex
0	436	207	#line 436 "D:\Labo - Robotique\Compet'\Projet-Compet.nxc"
0	437	207		mov __TextOutArgs.Location.X, __signed_stack_001main
0	436	210	#line 436 "D:\Labo - Robotique\Compet'\Projet-Compet.nxc"
0	437	210		mov __TextOutArgs.Location.Y, __signed_stack_002main
0	436	213	#line 436 "D:\Labo - Robotique\Compet'\Projet-Compet.nxc"
0	437	213		set __TextOutArgs.Options, 0
0	436	216	#line 436 "D:\Labo - Robotique\Compet'\Projet-Compet.nxc"
0	437	216		numtostr __TextOutArgs.Text, __D0main
0	436	219	#line 436 "D:\Labo - Robotique\Compet'\Projet-Compet.nxc"
0	437	219		syscall 13, __TextOutArgs
0	436	222	#line 436 "D:\Labo - Robotique\Compet'\Projet-Compet.nxc"
0	437	222		mov __D0main, __TextOutArgs.Result
0	436	225	#line 436 "D:\Labo - Robotique\Compet'\Projet-Compet.nxc"
0	437	225		release __TextOutMutex
0	436	226	#line 436 "D:\Labo - Robotique\Compet'\Projet-Compet.nxc"
0	436	226	#line 436 "D:\Labo - Robotique\Compet'\Projet-Compet.nxc"
0	437	226		mov __signed_stack_001main, __main_7qG2_csr_7qG2_001.ColorValue
0	436	229	#line 436 "D:\Labo - Robotique\Compet'\Projet-Compet.nxc"
0	437	229	#line 437 "D:\Labo - Robotique\Compet'\Projet-Compet.nxc"
0	438	229		set __D0main, 5
0	437	232	#line 437 "D:\Labo - Robotique\Compet'\Projet-Compet.nxc"
0	438	232		cmp 5, __zfmain, __signed_stack_001main, __D0main
0	437	236	#line 437 "D:\Labo - Robotique\Compet'\Projet-Compet.nxc"
0	438	236		mov __D0main, __zfmain
0	438	239	#line 438 "D:\Labo - Robotique\Compet'\Projet-Compet.nxc"
0	439	239		brtst 4, __NXC_Label_1106, __zfmain
0	439	242	#line 439 "D:\Labo - Robotique\Compet'\Projet-Compet.nxc"
0	440	242		subcall depart, __depart_return
0	439	244	#line 439 "D:\Labo - Robotique\Compet'\Projet-Compet.nxc"
0	443	244	#line 443 "D:\Labo - Robotique\Compet'\Projet-Compet.nxc"
0	444	244		jmp __NXC_Label_1107
0	444	246	#line 444 "D:\Labo - Robotique\Compet'\Projet-Compet.nxc"
0	445	246		jmp __NXC_Label_1082
0	444	248	#line 444 "D:\Labo - Robotique\Compet'\Projet-Compet.nxc"
0	446	248	#line 446 "D:\Labo - Robotique\Compet'\Projet-Compet.nxc"
0	448	248	#line 448 "D:\Labo - Robotique\Compet'\Projet-Compet.nxc"
0	448	248	#line 448 "D:\Labo - Robotique\Compet'\Projet-Compet.nxc"
0	449	248		jmp __NXC_Label_1081
0	448	250	#line 448 "D:\Labo - Robotique\Compet'\Projet-Compet.nxc"
0	449	250	#line 449 "D:\Labo - Robotique\Compet'\Projet-Compet.nxc"
0	450	250		set premierefoisrouge, 1
0	449	253	#line 449 "D:\Labo - Robotique\Compet'\Projet-Compet.nxc"
0	449	253	#line 449 "D:\Labo - Robotique\Compet'\Projet-Compet.nxc"
0	450	253	#line 450 "D:\Labo - Robotique\Compet'\Projet-Compet.nxc"
0	450	253	#line 450 "D:\Labo - Robotique\Compet'\Projet-Compet.nxc"
0	450	253	#line 450 "D:\Labo - Robotique\Compet'\Projet-Compet.nxc"
0	451	253	#line 451 "D:\Labo - Robotique\Compet'\Projet-Compet.nxc"
0	452	253		set deportation, 0
0	451	256	#line 451 "D:\Labo - Robotique\Compet'\Projet-Compet.nxc"
0	451	256	#line 451 "D:\Labo - Robotique\Compet'\Projet-Compet.nxc"
0	451	256	#line 451 "D:\Labo - Robotique\Compet'\Projet-Compet.nxc"
0	452	256		set __SetSensorType_7qG2_port_7qG2_000_inline_main, 1
0	451	259	#line 451 "D:\Labo - Robotique\Compet'\Projet-Compet.nxc"
0	451	259	#line 451 "D:\Labo - Robotique\Compet'\Projet-Compet.nxc"
0	452	259		set __SetSensorType_7qG2_type_7qG2_000_inline_main, 1
0	451	262	#line 451 "D:\Labo - Robotique\Compet'\Projet-Compet.nxc"
0	3663	262	#line 3663 "NXCDefs.h"
0	3664	262		setin __SetSensorType_7qG2_type_7qG2_000_inline_main, __SetSensorType_7qG2_port_7qG2_000_inline_main, 0
0	3663	266	#line 3663 "NXCDefs.h"
0	453	266	#line 453 "D:\Labo - Robotique\Compet'\Projet-Compet.nxc"
0	454	266	#line 454 "D:\Labo - Robotique\Compet'\Projet-Compet.nxc"
0	455	266		set __D0main, 1
0	455	269	#line 455 "D:\Labo - Robotique\Compet'\Projet-Compet.nxc"
0	456	269		tst 5, __zfmain, __D0main
0	455	272	#line 455 "D:\Labo - Robotique\Compet'\Projet-Compet.nxc"
0	456	272		brtst 4, __NXC_Label_1119, __zfmain
0	455	275	#line 455 "D:\Labo - Robotique\Compet'\Projet-Compet.nxc"
0	456	275		set __SetSensorColorFull_7qG2_port_7qG2_000_inline_main, 0
0	455	278	#line 455 "D:\Labo - Robotique\Compet'\Projet-Compet.nxc"
0	3802	278	#line 3802 "NXCDefs.h"
0	3803	278	#pragma macro 6
0	3803	278		setin __constVal13, __SetSensorColorFull_7qG2_port_7qG2_000_inline_main, 0
0	3803	282		setin __constVal0, __SetSensorColorFull_7qG2_port_7qG2_000_inline_main, 1
0	3803	286		acquire __ResetSensorMutex
0	3803	287		mov __ResetSensorPort, __SetSensorColorFull_7qG2_port_7qG2_000_inline_main
0	3803	289		subcall __ResetSensorSubroutine, ____ResetSensorSubroutine_return
0	3803	292		release __ResetSensorMutex
0	8653	293	#line 8653 "NXCDefs.h"
0	3802	293	#line 3802 "NXCDefs.h"
0	456	293	#line 456 "D:\Labo - Robotique\Compet'\Projet-Compet.nxc"
0	458	293	#line 458 "D:\Labo - Robotique\Compet'\Projet-Compet.nxc"
0	459	293		set __main_7qG2_csr_7qG2_001.Port, 0
0	458	296	#line 458 "D:\Labo - Robotique\Compet'\Projet-Compet.nxc"
0	458	296	#line 458 "D:\Labo - Robotique\Compet'\Projet-Compet.nxc"
0	459	296	#line 459 "D:\Labo - Robotique\Compet'\Projet-Compet.nxc"
0	460	296	#pragma macro 4
0	460	296	#line 460 "D:\Labo - Robotique\Compet'\Projet-Compet.nxc"
0	460	296		syscall 34, __main_7qG2_csr_7qG2_001
0	458	299	#line 458 "D:\Labo - Robotique\Compet'\Projet-Compet.nxc"
0	458	299	#line 458 "D:\Labo - Robotique\Compet'\Projet-Compet.nxc"
0	458	299	#line 458 "D:\Labo - Robotique\Compet'\Projet-Compet.nxc"
0	458	299	#line 458 "D:\Labo - Robotique\Compet'\Projet-Compet.nxc"
0	460	299	#line 460 "D:\Labo - Robotique\Compet'\Projet-Compet.nxc"
0	459	299	#line 459 "D:\Labo - Robotique\Compet'\Projet-Compet.nxc"
0	460	299	#line 460 "D:\Labo - Robotique\Compet'\Projet-Compet.nxc"
0	461	299		mov __signed_stack_001main, premierefoisrouge
0	460	301	#line 460 "D:\Labo - Robotique\Compet'\Projet-Compet.nxc"
0	461	301	#line 461 "D:\Labo - Robotique\Compet'\Projet-Compet.nxc"
0	462	301		set __D0main, 1
0	461	304	#line 461 "D:\Labo - Robotique\Compet'\Projet-Compet.nxc"
0	462	304		cmp 4, __zfmain, __signed_stack_001main, __D0main
0	461	308	#line 461 "D:\Labo - Robotique\Compet'\Projet-Compet.nxc"
0	462	308		mov __D0main, __zfmain
0	462	311	#line 462 "D:\Labo - Robotique\Compet'\Projet-Compet.nxc"
0	463	311		brtst 4, __NXC_Label_1128, __zfmain
0	6069	314	#line 6069 "NXCDefs.h"
0	6070	314	#pragma macro 6
0	6070	314		acquire __PointOutMutex
0	6070	315		mov __PointOutArgs.Location.X, __constVal200
0	6070	318		mov __PointOutArgs.Location.Y, __constVal200
0	6070	321		mov __PointOutArgs.Options, __constVal1
0	6070	323		syscall 14, __PointOutArgs
0	6070	326		release __PointOutMutex
0	8689	327	#line 8689 "NXCDefs.h"
0	6069	327	#line 6069 "NXCDefs.h"
0	463	327	#line 463 "D:\Labo - Robotique\Compet'\Projet-Compet.nxc"
0	463	327	#line 463 "D:\Labo - Robotique\Compet'\Projet-Compet.nxc"
0	464	327		set __signed_stack_001main, 0
0	463	330	#line 463 "D:\Labo - Robotique\Compet'\Projet-Compet.nxc"
0	463	330	#line 463 "D:\Labo - Robotique\Compet'\Projet-Compet.nxc"
0	464	330		set __signed_stack_002main, 8
0	463	333	#line 463 "D:\Labo - Robotique\Compet'\Projet-Compet.nxc"
0	463	333	#line 463 "D:\Labo - Robotique\Compet'\Projet-Compet.nxc"
0	464	333	#pragma macro 26
0	464	333		acquire __RLSBmutex2
0	464	334		mov __RLSReadBuf2, __RLSBbufLSWrite1
0	464	336		set __RLSBytesCount2, 1
0	464	339		wait2 NA, __constVal15
0	464	342		subcall __ReadLSBytes2, ____ReadLSBytes2_return
0	464	345		index __D0main, __RLSReadBuf2, 65535
0	464	349		release __RLSBmutex2
0	8705	350	#line 8705 "D:\Labo - Robotique\Compet'\Projet-Compet.nxc"
0	464	350	#line 464 "D:\Labo - Robotique\Compet'\Projet-Compet.nxc"
0	465	350		acquire __TextOutMutex
0	464	351	#line 464 "D:\Labo - Robotique\Compet'\Projet-Compet.nxc"
0	465	351		mov __TextOutArgs.Location.X, __signed_stack_001main
0	464	354	#line 464 "D:\Labo - Robotique\Compet'\Projet-Compet.nxc"
0	465	354		mov __TextOutArgs.Location.Y, __signed_stack_002main
0	464	357	#line 464 "D:\Labo - Robotique\Compet'\Projet-Compet.nxc"
0	465	357		set __TextOutArgs.Options, 0
0	464	360	#line 464 "D:\Labo - Robotique\Compet'\Projet-Compet.nxc"
0	465	360		numtostr __TextOutArgs.Text, __D0main
0	464	363	#line 464 "D:\Labo - Robotique\Compet'\Projet-Compet.nxc"
0	465	363		syscall 13, __TextOutArgs
0	464	366	#line 464 "D:\Labo - Robotique\Compet'\Projet-Compet.nxc"
0	465	366		mov __D0main, __TextOutArgs.Result
0	464	369	#line 464 "D:\Labo - Robotique\Compet'\Projet-Compet.nxc"
0	465	369		release __TextOutMutex
0	464	370	#line 464 "D:\Labo - Robotique\Compet'\Projet-Compet.nxc"
0	464	370	#line 464 "D:\Labo - Robotique\Compet'\Projet-Compet.nxc"
0	464	370	#line 464 "D:\Labo - Robotique\Compet'\Projet-Compet.nxc"
0	465	370		set __signed_stack_001main, 0
0	464	373	#line 464 "D:\Labo - Robotique\Compet'\Projet-Compet.nxc"
0	464	373	#line 464 "D:\Labo - Robotique\Compet'\Projet-Compet.nxc"
0	465	373		set __signed_stack_002main, 0
0	464	376	#line 464 "D:\Labo - Robotique\Compet'\Projet-Compet.nxc"
0	464	376	#line 464 "D:\Labo - Robotique\Compet'\Projet-Compet.nxc"
0	465	376	#pragma macro 26
0	465	376		acquire __RLSBmutex3
0	465	377		mov __RLSReadBuf3, __RLSBbufLSWrite1
0	465	379		set __RLSBytesCount3, 1
0	465	382		wait2 NA, __constVal15
0	465	385		subcall __ReadLSBytes3, ____ReadLSBytes3_return
0	465	388		index __D0main, __RLSReadBuf3, 65535
0	465	392		release __RLSBmutex3
0	8739	393	#line 8739 "D:\Labo - Robotique\Compet'\Projet-Compet.nxc"
0	465	393	#line 465 "D:\Labo - Robotique\Compet'\Projet-Compet.nxc"
0	466	393		acquire __TextOutMutex
0	465	394	#line 465 "D:\Labo - Robotique\Compet'\Projet-Compet.nxc"
0	466	394		mov __TextOutArgs.Location.X, __signed_stack_001main
0	465	397	#line 465 "D:\Labo - Robotique\Compet'\Projet-Compet.nxc"
0	466	397		mov __TextOutArgs.Location.Y, __signed_stack_002main
0	465	400	#line 465 "D:\Labo - Robotique\Compet'\Projet-Compet.nxc"
0	466	400		set __TextOutArgs.Options, 0
0	465	403	#line 465 "D:\Labo - Robotique\Compet'\Projet-Compet.nxc"
0	466	403		numtostr __TextOutArgs.Text, __D0main
0	465	406	#line 465 "D:\Labo - Robotique\Compet'\Projet-Compet.nxc"
0	466	406		syscall 13, __TextOutArgs
0	465	409	#line 465 "D:\Labo - Robotique\Compet'\Projet-Compet.nxc"
0	466	409		mov __D0main, __TextOutArgs.Result
0	465	412	#line 465 "D:\Labo - Robotique\Compet'\Projet-Compet.nxc"
0	466	412		release __TextOutMutex
0	465	413	#line 465 "D:\Labo - Robotique\Compet'\Projet-Compet.nxc"
0	465	413	#line 465 "D:\Labo - Robotique\Compet'\Projet-Compet.nxc"
0	465	413	#line 465 "D:\Labo - Robotique\Compet'\Projet-Compet.nxc"
0	466	413	#pragma macro 26
0	466	413		acquire __RLSBmutex2
0	466	414		mov __RLSReadBuf2, __RLSBbufLSWrite1
0	466	416		set __RLSBytesCount2, 1
0	466	419		wait2 NA, __constVal15
0	466	422		subcall __ReadLSBytes2, ____ReadLSBytes2_return
0	466	425		index __D0main, __RLSReadBuf2, 65535
0	466	429		release __RLSBmutex2
0	8761	430	#line 8761 "D:\Labo - Robotique\Compet'\Projet-Compet.nxc"
0	465	430	#line 465 "D:\Labo - Robotique\Compet'\Projet-Compet.nxc"
0	466	430		mov __signed_stack_001main, __D0main
0	465	432	#line 465 "D:\Labo - Robotique\Compet'\Projet-Compet.nxc"
0	466	432		set __D0main, 30
0	465	435	#line 465 "D:\Labo - Robotique\Compet'\Projet-Compet.nxc"
0	466	435		cmp 1, __zfmain, __signed_stack_001main, __D0main
0	465	439	#line 465 "D:\Labo - Robotique\Compet'\Projet-Compet.nxc"
0	466	439		mov __D0main, __zfmain
0	465	442	#line 465 "D:\Labo - Robotique\Compet'\Projet-Compet.nxc"
0	466	442		brtst 4, __NXC_Label_1142, __zfmain
0	465	445	#line 465 "D:\Labo - Robotique\Compet'\Projet-Compet.nxc"
0	466	445		mov __signed_stack_001main, __D0main
0	465	447	#line 465 "D:\Labo - Robotique\Compet'\Projet-Compet.nxc"
0	466	447	#pragma macro 26
0	466	447		acquire __RLSBmutex3
0	466	448		mov __RLSReadBuf3, __RLSBbufLSWrite1
0	466	450		set __RLSBytesCount3, 1
0	466	453		wait2 NA, __constVal15
0	466	456		subcall __ReadLSBytes3, ____ReadLSBytes3_return
0	466	459		index __D0main, __RLSReadBuf3, 65535
0	466	463		release __RLSBmutex3
0	8775	464	#line 8775 "D:\Labo - Robotique\Compet'\Projet-Compet.nxc"
0	465	464	#line 465 "D:\Labo - Robotique\Compet'\Projet-Compet.nxc"
0	466	464		mov __signed_stack_002main, __D0main
0	466	466	#line 466 "D:\Labo - Robotique\Compet'\Projet-Compet.nxc"
0	467	466		set __D0main, 100
0	466	469	#line 466 "D:\Labo - Robotique\Compet'\Projet-Compet.nxc"
0	467	469		cmp 0, __zfmain, __signed_stack_002main, __D0main
0	466	473	#line 466 "D:\Labo - Robotique\Compet'\Projet-Compet.nxc"
0	466	473	#line 466 "D:\Labo - Robotique\Compet'\Projet-Compet.nxc"
0	467	473		and __D0main, __signed_stack_001main, __zfmain
0	467	477	#line 467 "D:\Labo - Robotique\Compet'\Projet-Compet.nxc"
0	468	477		tst 5, __zfmain, __D0main
0	467	480	#line 467 "D:\Labo - Robotique\Compet'\Projet-Compet.nxc"
0	468	480		brtst 4, __NXC_Label_1143, __zfmain
0	467	483	#line 467 "D:\Labo - Robotique\Compet'\Projet-Compet.nxc"
0	468	483		set __D0main, 25
0	468	486	#line 468 "D:\Labo - Robotique\Compet'\Projet-Compet.nxc"
0	469	486	#pragma macro 7
0	469	486		setout __constVal1, 2, __D0main, 1, __constVal3, 8, __constVal0, 6, __constVal32, 7, __constVal0, 5, __constVal0, 10, __constVal96, 11, __constVal32, 12, __constVal32, 0, __constVal63
0	8797	509	#line 8797 "D:\Labo - Robotique\Compet'\Projet-Compet.nxc"
0	468	509	#line 468 "D:\Labo - Robotique\Compet'\Projet-Compet.nxc"
0	468	509	#line 468 "D:\Labo - Robotique\Compet'\Projet-Compet.nxc"
0	469	509		set __D0main, 25
0	469	512	#line 469 "D:\Labo - Robotique\Compet'\Projet-Compet.nxc"
0	470	512	#pragma macro 10
0	470	512		acquire __OnRevMutex
0	470	513		neg __OnRev_Tmp, __D0main
0	470	516		setout __constVal0, 2, __OnRev_Tmp, 1, __constVal3, 8, __constVal0, 6, __constVal32, 7, __constVal0, 5, __constVal0, 10, __constVal96, 11, __constVal32, 12, __constVal32, 0, __constVal63
0	470	539		release __OnRevMutex
0	8804	540	#line 8804 "D:\Labo - Robotique\Compet'\Projet-Compet.nxc"
0	469	540	#line 469 "D:\Labo - Robotique\Compet'\Projet-Compet.nxc"
0	469	540	#line 469 "D:\Labo - Robotique\Compet'\Projet-Compet.nxc"
0	470	540		set __Wait_7qG2_ms_7qG2_000_inline_main, 20
0	469	543	#line 469 "D:\Labo - Robotique\Compet'\Projet-Compet.nxc"
0	7921	543	#line 7921 "NXCDefs.h"
0	7922	543		wait2 NA, __Wait_7qG2_ms_7qG2_000_inline_main
0	7921	546	#line 7921 "NXCDefs.h"
0	470	546	#line 470 "D:\Labo - Robotique\Compet'\Projet-Compet.nxc"
0	471	546	#line 471 "D:\Labo - Robotique\Compet'\Projet-Compet.nxc"
0	472	546		jmp __NXC_Label_1150
0	472	548	#line 472 "D:\Labo - Robotique\Compet'\Projet-Compet.nxc"
0	473	548		set premierefoisrouge, 0
0	472	551	#line 472 "D:\Labo - Robotique\Compet'\Projet-Compet.nxc"
0	472	551	#line 472 "D:\Labo - Robotique\Compet'\Projet-Compet.nxc"
0	472	551	#line 472 "D:\Labo - Robotique\Compet'\Projet-Compet.nxc"
0	475	551	#line 475 "D:\Labo - Robotique\Compet'\Projet-Compet.nxc"
0	476	551		jmp __NXC_Label_1153
0	476	553	#line 476 "D:\Labo - Robotique\Compet'\Projet-Compet.nxc"
0	477	553		subcall suivre_ligne, __suivre_ligne_return
0	476	555	#line 476 "D:\Labo - Robotique\Compet'\Projet-Compet.nxc"
0	477	555	#line 477 "D:\Labo - Robotique\Compet'\Projet-Compet.nxc"
0	477	555	#line 477 "D:\Labo - Robotique\Compet'\Projet-Compet.nxc"
0	478	555		set __SetSensorTouch_7qG2_port_7qG2_000_inline_main, 1
0	477	558	#line 477 "D:\Labo - Robotique\Compet'\Projet-Compet.nxc"
0	3718	558	#line 3718 "NXCDefs.h"
0	3719	558	#pragma macro 6
0	3719	558		setin __constVal1, __SetSensorTouch_7qG2_port_7qG2_000_inline_main, 0
0	3719	562		setin __constVal32, __SetSensorTouch_7qG2_port_7qG2_000_inline_main, 1
0	3719	566		acquire __ResetSensorMutex
0	3719	567		mov __ResetSensorPort, __SetSensorTouch_7qG2_port_7qG2_000_inline_main
0	3719	569		subcall __ResetSensorSubroutine, ____ResetSensorSubroutine_return
0	3719	572		release __ResetSensorMutex
0	8851	573	#line 8851 "NXCDefs.h"
0	3718	573	#line 3718 "NXCDefs.h"
0	478	573	#line 478 "D:\Labo - Robotique\Compet'\Projet-Compet.nxc"
0	478	573	#line 478 "D:\Labo - Robotique\Compet'\Projet-Compet.nxc"
0	479	573	#pragma macro 12
0	479	573		getin __HTMplexRaw, __constVal1, 2
0	479	577		mul __HTMplexScaled, __HTMplexRaw, __constVal339
0	479	581		sub __HTMplexScaled, __constVal346797, __HTMplexScaled
0	479	585		div __HTMplexScaled, __HTMplexScaled, __HTMplexRaw
0	479	589		add __HTMplexScaled, __HTMplexScaled, __constVal5
0	479	593		div __HTMplexScaled, __HTMplexScaled, __constVal10
0	479	597		and __main_7qG2_w_7qG2_000, __HTMplexScaled, __constVal1
0	8855	601	#line 8855 "D:\Labo - Robotique\Compet'\Projet-Compet.nxc"
0	478	601	#line 478 "D:\Labo - Robotique\Compet'\Projet-Compet.nxc"
0	478	601	#line 478 "D:\Labo - Robotique\Compet'\Projet-Compet.nxc"
0	480	601	#line 480 "D:\Labo - Robotique\Compet'\Projet-Compet.nxc"
0	481	601		mov __D0main, __main_7qG2_w_7qG2_000
0	481	603	#line 481 "D:\Labo - Robotique\Compet'\Projet-Compet.nxc"
0	482	603		tst 5, __zfmain, __D0main
0	481	606	#line 481 "D:\Labo - Robotique\Compet'\Projet-Compet.nxc"
0	482	606		brtst 4, __NXC_Label_1158, __zfmain
0	482	609	#line 482 "D:\Labo - Robotique\Compet'\Projet-Compet.nxc"
0	483	609	#pragma macro 7
0	483	609		setout __OUT_AB, 2, __constVal0, 1, __constVal3, 8, __constVal0, 6, __constVal32, 7, __constVal0, 5, __constVal0, 10, __constVal96, 11, __constVal32, 12, __constVal32, 0, __constVal63
0	8867	632	#line 8867 "D:\Labo - Robotique\Compet'\Projet-Compet.nxc"
0	482	632	#line 482 "D:\Labo - Robotique\Compet'\Projet-Compet.nxc"
0	482	632	#line 482 "D:\Labo - Robotique\Compet'\Projet-Compet.nxc"
0	483	632		set __Wait_7qG2_ms_7qG2_000_inline_main, 500
0	482	635	#line 482 "D:\Labo - Robotique\Compet'\Projet-Compet.nxc"
0	7921	635	#line 7921 "NXCDefs.h"
0	7922	635		wait2 NA, __Wait_7qG2_ms_7qG2_000_inline_main
0	7921	638	#line 7921 "NXCDefs.h"
0	483	638	#line 483 "D:\Labo - Robotique\Compet'\Projet-Compet.nxc"
0	483	638	#line 483 "D:\Labo - Robotique\Compet'\Projet-Compet.nxc"
0	484	638		set __D0main, 50
0	484	641	#line 484 "D:\Labo - Robotique\Compet'\Projet-Compet.nxc"
0	485	641	#pragma macro 10
0	485	641		acquire __OnRevMutex
0	485	642		neg __OnRev_Tmp, __D0main
0	485	645		setout __OUT_AB, 2, __OnRev_Tmp, 1, __constVal3, 8, __constVal0, 6, __constVal32, 7, __constVal0, 5, __constVal0, 10, __constVal96, 11, __constVal32, 12, __constVal32, 0, __constVal63
0	485	668		release __OnRevMutex
0	8884	669	#line 8884 "D:\Labo - Robotique\Compet'\Projet-Compet.nxc"
0	484	669	#line 484 "D:\Labo - Robotique\Compet'\Projet-Compet.nxc"
0	484	669	#line 484 "D:\Labo - Robotique\Compet'\Projet-Compet.nxc"
0	485	669		set __Wait_7qG2_ms_7qG2_000_inline_main, 1000
0	484	672	#line 484 "D:\Labo - Robotique\Compet'\Projet-Compet.nxc"
0	7921	672	#line 7921 "NXCDefs.h"
0	7922	672		wait2 NA, __Wait_7qG2_ms_7qG2_000_inline_main
0	7921	675	#line 7921 "NXCDefs.h"
0	485	675	#line 485 "D:\Labo - Robotique\Compet'\Projet-Compet.nxc"
0	486	675	#line 486 "D:\Labo - Robotique\Compet'\Projet-Compet.nxc"
0	487	675	#pragma macro 7
0	487	675		setout __OUT_AB, 2, __constVal0, 1, __constVal3, 8, __constVal0, 6, __constVal32, 7, __constVal0, 5, __constVal0, 10, __constVal96, 11, __constVal32, 12, __constVal32, 0, __constVal63
0	8897	698	#line 8897 "D:\Labo - Robotique\Compet'\Projet-Compet.nxc"
0	486	698	#line 486 "D:\Labo - Robotique\Compet'\Projet-Compet.nxc"
0	486	698	#line 486 "D:\Labo - Robotique\Compet'\Projet-Compet.nxc"
0	487	698		set __D0main, 100
0	487	701	#line 487 "D:\Labo - Robotique\Compet'\Projet-Compet.nxc"
0	488	701	#pragma macro 10
0	488	701		acquire __OnRevMutex
0	488	702		neg __OnRev_Tmp, __D0main
0	488	705		setout __constVal1, 2, __OnRev_Tmp, 1, __constVal3, 8, __constVal0, 6, __constVal32, 7, __constVal0, 5, __constVal0, 10, __constVal96, 11, __constVal32, 12, __constVal32, 0, __constVal63
0	488	728		release __OnRevMutex
0	8904	729	#line 8904 "D:\Labo - Robotique\Compet'\Projet-Compet.nxc"
0	487	729	#line 487 "D:\Labo - Robotique\Compet'\Projet-Compet.nxc"
0	487	729	#line 487 "D:\Labo - Robotique\Compet'\Projet-Compet.nxc"
0	488	729		set __D0main, 100
0	488	732	#line 488 "D:\Labo - Robotique\Compet'\Projet-Compet.nxc"
0	489	732	#pragma macro 7
0	489	732		setout __constVal0, 2, __D0main, 1, __constVal3, 8, __constVal0, 6, __constVal32, 7, __constVal0, 5, __constVal0, 10, __constVal96, 11, __constVal32, 12, __constVal32, 0, __constVal63
0	8911	755	#line 8911 "D:\Labo - Robotique\Compet'\Projet-Compet.nxc"
0	488	755	#line 488 "D:\Labo - Robotique\Compet'\Projet-Compet.nxc"
0	488	755	#line 488 "D:\Labo - Robotique\Compet'\Projet-Compet.nxc"
0	489	755		set __Wait_7qG2_ms_7qG2_000_inline_main, 1750
0	488	758	#line 488 "D:\Labo - Robotique\Compet'\Projet-Compet.nxc"
0	7921	758	#line 7921 "NXCDefs.h"
0	7922	758		wait2 NA, __Wait_7qG2_ms_7qG2_000_inline_main
0	7921	761	#line 7921 "NXCDefs.h"
0	489	761	#line 489 "D:\Labo - Robotique\Compet'\Projet-Compet.nxc"
0	491	761	#line 491 "D:\Labo - Robotique\Compet'\Projet-Compet.nxc"
0	492	761	#pragma macro 7
0	492	761		setout __OUT_AB, 2, __constVal0, 1, __constVal3, 8, __constVal0, 6, __constVal32, 7, __constVal0, 5, __constVal0, 10, __constVal96, 11, __constVal32, 12, __constVal32, 0, __constVal63
0	8924	784	#line 8924 "D:\Labo - Robotique\Compet'\Projet-Compet.nxc"
0	491	784	#line 491 "D:\Labo - Robotique\Compet'\Projet-Compet.nxc"
0	492	784	#line 492 "D:\Labo - Robotique\Compet'\Projet-Compet.nxc"
0	493	784		jmp __NXC_Label_1119
0	492	786	#line 492 "D:\Labo - Robotique\Compet'\Projet-Compet.nxc"
0	498	786	#line 498 "D:\Labo - Robotique\Compet'\Projet-Compet.nxc"
0	498	786	#line 498 "D:\Labo - Robotique\Compet'\Projet-Compet.nxc"
0	499	786		jmp __NXC_Label_1118
0	498	788	#line 498 "D:\Labo - Robotique\Compet'\Projet-Compet.nxc"
0	500	788	#line 500 "D:\Labo - Robotique\Compet'\Projet-Compet.nxc"
0	501	788		subcall canape, __canape_return
0	500	790	#line 500 "D:\Labo - Robotique\Compet'\Projet-Compet.nxc"
0	502	790	#line 502 "D:\Labo - Robotique\Compet'\Projet-Compet.nxc"
0	503	790		subcall locaux, __locaux_return
0	502	792	#line 502 "D:\Labo - Robotique\Compet'\Projet-Compet.nxc"
0	504	792	#line 504 "D:\Labo - Robotique\Compet'\Projet-Compet.nxc"
0	505	792		subcall humeur, __humeur_return
0	504	794	#line 504 "D:\Labo - Robotique\Compet'\Projet-Compet.nxc"
0	508	794	#line 508 "D:\Labo - Robotique\Compet'\Projet-Compet.nxc"
0	509	794		subcall cle, __cle_return
0	508	796	#line 508 "D:\Labo - Robotique\Compet'\Projet-Compet.nxc"
0	509	796	#line 509 "D:\Labo - Robotique\Compet'\Projet-Compet.nxc"
0	510	796		set __D0main, 1
0	510	799	#line 510 "D:\Labo - Robotique\Compet'\Projet-Compet.nxc"
0	511	799		tst 5, __zfmain, __D0main
0	510	802	#line 510 "D:\Labo - Robotique\Compet'\Projet-Compet.nxc"
0	511	802		brtst 4, __NXC_Label_1172, __zfmain
0	510	805	#line 510 "D:\Labo - Robotique\Compet'\Projet-Compet.nxc"
0	511	805		set __SetSensorColorFull_7qG2_port_7qG2_000_inline_main, 0
0	510	808	#line 510 "D:\Labo - Robotique\Compet'\Projet-Compet.nxc"
0	3802	808	#line 3802 "NXCDefs.h"
0	3803	808	#pragma macro 6
0	3803	808		setin __constVal13, __SetSensorColorFull_7qG2_port_7qG2_000_inline_main, 0
0	3803	812		setin __constVal0, __SetSensorColorFull_7qG2_port_7qG2_000_inline_main, 1
0	3803	816		acquire __ResetSensorMutex
0	3803	817		mov __ResetSensorPort, __SetSensorColorFull_7qG2_port_7qG2_000_inline_main
0	3803	819		subcall __ResetSensorSubroutine, ____ResetSensorSubroutine_return
0	3803	822		release __ResetSensorMutex
0	8963	823	#line 8963 "NXCDefs.h"
0	3802	823	#line 3802 "NXCDefs.h"
0	511	823	#line 511 "D:\Labo - Robotique\Compet'\Projet-Compet.nxc"
0	513	823	#line 513 "D:\Labo - Robotique\Compet'\Projet-Compet.nxc"
0	514	823		set __main_7qG2_csr_7qG2_001.Port, 0
0	513	826	#line 513 "D:\Labo - Robotique\Compet'\Projet-Compet.nxc"
0	513	826	#line 513 "D:\Labo - Robotique\Compet'\Projet-Compet.nxc"
0	514	826	#line 514 "D:\Labo - Robotique\Compet'\Projet-Compet.nxc"
0	515	826	#pragma macro 4
0	515	826	#line 515 "D:\Labo - Robotique\Compet'\Projet-Compet.nxc"
0	515	826		syscall 34, __main_7qG2_csr_7qG2_001
0	513	829	#line 513 "D:\Labo - Robotique\Compet'\Projet-Compet.nxc"
0	513	829	#line 513 "D:\Labo - Robotique\Compet'\Projet-Compet.nxc"
0	513	829	#line 513 "D:\Labo - Robotique\Compet'\Projet-Compet.nxc"
0	513	829	#line 513 "D:\Labo - Robotique\Compet'\Projet-Compet.nxc"
0	515	829	#line 515 "D:\Labo - Robotique\Compet'\Projet-Compet.nxc"
0	514	829	#line 514 "D:\Labo - Robotique\Compet'\Projet-Compet.nxc"
0	515	829	#line 515 "D:\Labo - Robotique\Compet'\Projet-Compet.nxc"
0	516	829		set __D0main, 53
0	516	832	#line 516 "D:\Labo - Robotique\Compet'\Projet-Compet.nxc"
0	517	832	#pragma macro 7
0	517	832		setout __constVal0, 2, __D0main, 1, __constVal3, 8, __constVal0, 6, __constVal32, 7, __constVal0, 5, __constVal0, 10, __constVal96, 11, __constVal32, 12, __constVal32, 0, __constVal63
0	8989	855	#line 8989 "D:\Labo - Robotique\Compet'\Projet-Compet.nxc"
0	516	855	#line 516 "D:\Labo - Robotique\Compet'\Projet-Compet.nxc"
0	516	855	#line 516 "D:\Labo - Robotique\Compet'\Projet-Compet.nxc"
0	517	855		set __D0main, 50
0	518	858	#line 518 "D:\Labo - Robotique\Compet'\Projet-Compet.nxc"
0	519	858	#pragma macro 7
0	519	858		setout __constVal1, 2, __D0main, 1, __constVal3, 8, __constVal0, 6, __constVal32, 7, __constVal0, 5, __constVal0, 10, __constVal96, 11, __constVal32, 12, __constVal32, 0, __constVal63
0	8996	881	#line 8996 "D:\Labo - Robotique\Compet'\Projet-Compet.nxc"
0	518	881	#line 518 "D:\Labo - Robotique\Compet'\Projet-Compet.nxc"
0	518	881	#line 518 "D:\Labo - Robotique\Compet'\Projet-Compet.nxc"
0	519	881	#pragma macro 26
0	519	881		acquire __RLSBmutex2
0	519	882		mov __RLSReadBuf2, __RLSBbufLSWrite1
0	519	884		set __RLSBytesCount2, 1
0	519	887		wait2 NA, __constVal15
0	519	890		subcall __ReadLSBytes2, ____ReadLSBytes2_return
0	519	893		index __D0main, __RLSReadBuf2, 65535
0	519	897		release __RLSBmutex2
0	8999	898	#line 8999 "D:\Labo - Robotique\Compet'\Projet-Compet.nxc"
0	518	898	#line 518 "D:\Labo - Robotique\Compet'\Projet-Compet.nxc"
0	519	898		mov __signed_stack_001main, __D0main
0	519	900	#line 519 "D:\Labo - Robotique\Compet'\Projet-Compet.nxc"
0	520	900		set __D0main, 15
0	519	903	#line 519 "D:\Labo - Robotique\Compet'\Projet-Compet.nxc"
0	520	903		cmp 0, __zfmain, __signed_stack_001main, __D0main
0	519	907	#line 519 "D:\Labo - Robotique\Compet'\Projet-Compet.nxc"
0	520	907		mov __D0main, __zfmain
0	520	910	#line 520 "D:\Labo - Robotique\Compet'\Projet-Compet.nxc"
0	521	910		brtst 4, __NXC_Label_1185, __zfmain
0	521	913	#line 521 "D:\Labo - Robotique\Compet'\Projet-Compet.nxc"
0	522	913	#pragma macro 7
0	522	913		setout __OUT_AB, 2, __constVal0, 1, __constVal3, 8, __constVal0, 6, __constVal32, 7, __constVal0, 5, __constVal0, 10, __constVal96, 11, __constVal32, 12, __constVal32, 0, __constVal63
0	9013	936	#line 9013 "D:\Labo - Robotique\Compet'\Projet-Compet.nxc"
0	521	936	#line 521 "D:\Labo - Robotique\Compet'\Projet-Compet.nxc"
0	521	936	#line 521 "D:\Labo - Robotique\Compet'\Projet-Compet.nxc"
0	522	936		set __signed_stack_001main, 53
0	521	939	#line 521 "D:\Labo - Robotique\Compet'\Projet-Compet.nxc"
0	521	939	#line 521 "D:\Labo - Robotique\Compet'\Projet-Compet.nxc"
0	522	939		set __D0main, 210
0	522	942	#line 522 "D:\Labo - Robotique\Compet'\Projet-Compet.nxc"
0	523	942	#pragma macro 33
0	523	942		acquire __rotateMutex0
0	523	943		arrbuild __rotate_ports0, __constVal0
0	523	947		mov __rotate_power0, __signed_stack_001main
0	523	949		mov __rotate_angle0, __D0main
0	523	951		mov __rotate_turnpct0, __constVal0
0	523	953		mov __rotate_sync0, __constVal0
0	523	955		mov __rotate_stop0, __constVal1
0	523	957		mov __rotate_theRVP0, __constVal32
0	523	959		mov __rotate_theRVI0, __constVal0
0	523	961		mov __rotate_theRVD0, __constVal96
0	523	963		subcall __RotateMotor0, ____RotateMotor0_return
0	523	966		release __rotateMutex0
0	9026	967	#line 9026 "D:\Labo - Robotique\Compet'\Projet-Compet.nxc"
0	522	967	#line 522 "D:\Labo - Robotique\Compet'\Projet-Compet.nxc"
0	522	967	#line 522 "D:\Labo - Robotique\Compet'\Projet-Compet.nxc"
0	523	967		set __signed_stack_001main, 50
0	522	970	#line 522 "D:\Labo - Robotique\Compet'\Projet-Compet.nxc"
0	522	970	#line 522 "D:\Labo - Robotique\Compet'\Projet-Compet.nxc"
0	523	970		mov __D0main, __constValNeg210
0	523	972	#line 523 "D:\Labo - Robotique\Compet'\Projet-Compet.nxc"
0	524	972	#pragma macro 33
0	524	972		acquire __rotateMutex1
0	524	973		arrbuild __rotate_ports1, __constVal1
0	524	977		mov __rotate_power1, __signed_stack_001main
0	524	980		mov __rotate_angle1, __D0main
0	524	982		mov __rotate_turnpct1, __constVal0
0	524	984		mov __rotate_sync1, __constVal0
0	524	986		mov __rotate_stop1, __constVal1
0	524	988		mov __rotate_theRVP1, __constVal32
0	524	990		mov __rotate_theRVI1, __constVal0
0	524	992		mov __rotate_theRVD1, __constVal96
0	524	994		subcall __RotateMotor1, ____RotateMotor1_return
0	524	997		release __rotateMutex1
0	9039	998	#line 9039 "D:\Labo - Robotique\Compet'\Projet-Compet.nxc"
0	523	998	#line 523 "D:\Labo - Robotique\Compet'\Projet-Compet.nxc"
0	525	998	#line 525 "D:\Labo - Robotique\Compet'\Projet-Compet.nxc"
0	525	998	#line 525 "D:\Labo - Robotique\Compet'\Projet-Compet.nxc"
0	526	998		mov __signed_stack_001main, __main_7qG2_csr_7qG2_001.ColorValue
0	525	1001	#line 525 "D:\Labo - Robotique\Compet'\Projet-Compet.nxc"
0	526	1001	#line 526 "D:\Labo - Robotique\Compet'\Projet-Compet.nxc"
0	527	1001		set __D0main, 2
0	526	1004	#line 526 "D:\Labo - Robotique\Compet'\Projet-Compet.nxc"
0	527	1004		cmp 4, __zfmain, __signed_stack_001main, __D0main
0	526	1008	#line 526 "D:\Labo - Robotique\Compet'\Projet-Compet.nxc"
0	527	1008		mov __D0main, __zfmain
0	527	1011	#line 527 "D:\Labo - Robotique\Compet'\Projet-Compet.nxc"
0	528	1011		brtst 4, __NXC_Label_1196, __zfmain
0	528	1014	#line 528 "D:\Labo - Robotique\Compet'\Projet-Compet.nxc"
0	529	1014		jmp __NXC_Label_1172
0	528	1016	#line 528 "D:\Labo - Robotique\Compet'\Projet-Compet.nxc"
0	530	1016	#line 530 "D:\Labo - Robotique\Compet'\Projet-Compet.nxc"
0	548	1016	#line 548 "D:\Labo - Robotique\Compet'\Projet-Compet.nxc"
0	549	1016		jmp __NXC_Label_1171
0	548	1018	#line 548 "D:\Labo - Robotique\Compet'\Projet-Compet.nxc"
0	549	1018		exit -1, -1
1	4476	0		brtst 4, __rotate_Done0, __rotate_angle0
1	4477	3		set ____RotateMotor0_sign_tmp, 0
1	4477	6		brtst EQ, __sign_0, __rotate_angle0
1	4477	9		set ____RotateMotor0_sign_tmp, -1
1	4477	12		brtst LT, __sign_0, __rotate_angle0
1	4477	15		set ____RotateMotor0_sign_tmp, 1
1	4477	18	__sign_0:	mov __rotate_thePower0, ____RotateMotor0_sign_tmp
1	4478	20		abs __rotate_theAngle0, __rotate_angle0
1	4479	23		mul __rotate_thePower0, __rotate_thePower0, __rotate_power0
1	4481	27		set __rotate_theUF0, 23
1	4482	30		brtst 4, __rotate_NoSync0, __rotate_sync0
1	4483	33		set __rotate_theOM0, 7
1	4484	36		set __rotate_theRM0, 2
1	4485	39		mov __rotate_theTurnPct0, __rotate_turnpct0
1	4486	41		brtst 4, __rotate_Start0, __rotate_theTurnPct0
1	4487	44		add __rotate_theUF0, __rotate_theUF0, __constVal32
1	4488	48		jmp __rotate_Start0
1	4490	50		set __rotate_theOM0, 3
1	4491	53		set __rotate_theRM0, 0
1	4492	56		set __rotate_theTurnPct0, 0
1	4494	59		set __rotate_theRS0, 32
1	4495	62		setout __rotate_ports0, 1, __rotate_theOM0, 8, __rotate_theRM0, 5, __rotate_theAngle0, 6, __rotate_theRS0, 10, __rotate_theRVP0, 11, __rotate_theRVI0, 12, __rotate_theRVD0, 2, __rotate_thePower0, 7, __rotate_turnpct0, 0, __rotate_theUF0
1	4498	85		index __rotate_firstPort0, __rotate_ports0, 65535
1	4500	89		getout __rotate_power0, __rotate_firstPort0, 2
1	4501	93		brtst 4, __rotate_doneRunning0, __rotate_power0
1	4502	96		getout __rotate_rs0, __rotate_firstPort0, 6
1	4503	100		brcmp 4, __rotate_Running0, __rotate_rs0, __constVal32
1	4505	104		brtst 4, __rotate_Reset0, __rotate_stop0
1	4507	107		set __rotate_theOM0, 7
1	4508	110		set __rotate_theUF0, 7
1	4509	113		setout __rotate_ports0, 1, __rotate_theOM0, 8, __constVal1, 6, __rotate_theRS0, 2, __constVal0, 5, __constVal0, 0, __rotate_theUF0
1	4511	128		getout __rotate_RotCount0, __rotate_firstPort0, 14
1	4513	132		mov __rotate_OldRotCount0, __rotate_RotCount0
1	4514	134		wait2 NA, __constVal50
1	4516	137		getout __rotate_RotCount0, __rotate_firstPort0, 14
1	4517	141		brcmp 5, __rotate_Stabilize0, __rotate_OldRotCount0, __rotate_RotCount0
1	4518	145		set __rotate_theOM0, 4
1	4519	148		setout __rotate_ports0, 8, __rotate_theRM0, 6, __constVal0, 1, __rotate_theOM0, 0, __constVal1
1	4522	159		brtst 4, __rotate_Done0, __rotate_theTurnPct0
1	4523	162		setout __rotate_ports0, 0, __constVal32
1	4525	167		subret ____RotateMotor0_return
2	4529	0		brtst 4, __rotate_Done1, __rotate_angle1
2	4530	3		set ____RotateMotor1_sign_tmp, 0
2	4530	6		brtst EQ, __sign_1, __rotate_angle1
2	4530	9		set ____RotateMotor1_sign_tmp, -1
2	4530	12		brtst LT, __sign_1, __rotate_angle1
2	4530	15		set ____RotateMotor1_sign_tmp, 1
2	4530	18	__sign_1:	mov __rotate_thePower1, ____RotateMotor1_sign_tmp
2	4531	20		abs __rotate_theAngle1, __rotate_angle1
2	4532	23		mul __rotate_thePower1, __rotate_thePower1, __rotate_power1
2	4534	27		set __rotate_theUF1, 23
2	4535	30		brtst 4, __rotate_NoSync1, __rotate_sync1
2	4536	33		set __rotate_theOM1, 7
2	4537	36		set __rotate_theRM1, 2
2	4538	39		mov __rotate_theTurnPct1, __rotate_turnpct1
2	4539	41		brtst 4, __rotate_Start1, __rotate_theTurnPct1
2	4540	44		add __rotate_theUF1, __rotate_theUF1, __constVal32
2	4541	48		jmp __rotate_Start1
2	4543	50		set __rotate_theOM1, 3
2	4544	53		set __rotate_theRM1, 0
2	4545	56		set __rotate_theTurnPct1, 0
2	4547	59		set __rotate_theRS1, 32
2	4548	62		setout __rotate_ports1, 1, __rotate_theOM1, 8, __rotate_theRM1, 5, __rotate_theAngle1, 6, __rotate_theRS1, 10, __rotate_theRVP1, 11, __rotate_theRVI1, 12, __rotate_theRVD1, 2, __rotate_thePower1, 7, __rotate_turnpct1, 0, __rotate_theUF1
2	4551	85		index __rotate_firstPort1, __rotate_ports1, 65535
2	4553	89		getout __rotate_power1, __rotate_firstPort1, 2
2	4554	93		brtst 4, __rotate_doneRunning1, __rotate_power1
2	4555	96		getout __rotate_rs1, __rotate_firstPort1, 6
2	4556	100		brcmp 4, __rotate_Running1, __rotate_rs1, __constVal32
2	4558	104		brtst 4, __rotate_Reset1, __rotate_stop1
2	4560	107		set __rotate_theOM1, 7
2	4561	110		set __rotate_theUF1, 7
2	4562	113		setout __rotate_ports1, 1, __rotate_theOM1, 8, __constVal1, 6, __rotate_theRS1, 2, __constVal0, 5, __constVal0, 0, __rotate_theUF1
2	4564	128		getout __rotate_RotCount1, __rotate_firstPort1, 14
2	4566	132		mov __rotate_OldRotCount1, __rotate_RotCount1
2	4567	134		wait2 NA, __constVal50
2	4569	137		getout __rotate_RotCount1, __rotate_firstPort1, 14
2	4570	141		brcmp 5, __rotate_Stabilize1, __rotate_OldRotCount1, __rotate_RotCount1
2	4571	145		set __rotate_theOM1, 4
2	4572	148		setout __rotate_ports1, 8, __rotate_theRM1, 6, __constVal0, 1, __rotate_theOM1, 0, __constVal1
2	4575	159		brtst 4, __rotate_Done1, __rotate_theTurnPct1
2	4576	162		setout __rotate_ports1, 0, __constVal32
2	4578	167		subret ____RotateMotor1_return
3	4885	0		setin __constVal1, __ResetSensorPort, 5
3	4887	4		getin __ResetSensorTmp, __ResetSensorPort, 5
3	4888	8		brtst 5, __SensorStillInvalid, __ResetSensorTmp
3	4889	11		subret ____ResetSensorSubroutine_return
4	5747	0	#pragma macro 25
4	5747	0		acquire __CLSWMutex2
4	5747	1		set __CLSWArgs2.Port, 2
4	5747	4		mov __CLSWArgs2.ReturnLen, __RLSBytesCount2
4	5747	6		mov __CLSWArgs2.Buffer, __RLSReadBuf2
4	5747	8		syscall 21, __CLSWArgs2
4	5747	11		mov __RLSBResult2, __CLSWArgs2.Result
4	5747	13		release __CLSWMutex2
4	5747	14	#line 5747 "NXTDefs.h"
4	5748	14		brtst 4, __RLSBReturn2, __RLSBytesCount2
4	5749	17		arrinit __RLSReadBuf2, __constVal0, __RLSBytesCount2
4	5750	21		brtst 5, __RLSBError2, __RLSBResult2
4	5751	24		set __RLSBIterations2, 4
4	5753	27	#pragma macro 23
4	5753	27		acquire __CLSCSMutex2
4	5753	28		set __CLSCSArgs2.Port, 2
4	5753	31		syscall 23, __CLSCSArgs2
4	5753	34		mov __RLSBytesCount2, __CLSCSArgs2.BytesReady
4	5753	36		mov __RLSBResult2, __CLSCSArgs2.Result
4	5753	38		release __CLSCSMutex2
4	5753	39	#line 5753 "NXTDefs.h"
4	5754	39		sub __RLSBIterations2, __RLSBIterations2, __constVal1
4	5755	43		brtst 2, __RLSBError2, __RLSBIterations2
4	5756	46		brtst 0, __RLSBError2, __RLSBResult2
4	5757	49		brtst 4, __RLSBReadyToRead2, __RLSBResult2
4	5759	52		wait2 NA, __constVal15
4	5760	55		jmp __RLSBDoCheckStatus2
4	5763	57	#pragma macro 25
4	5763	57		acquire __CLSRMutex2
4	5763	58		set __CLSRArgs2.Port, 2
4	5763	61		mov __CLSRArgs2.BufferLen, __RLSBytesCount2
4	5763	64		syscall 22, __CLSRArgs2
4	5763	67		mov __RLSReadBuf2, __CLSRArgs2.Buffer
4	5763	69		mov __RLSBResult2, __CLSRArgs2.Result
4	5763	72		release __CLSRMutex2
4	5763	73	#line 5763 "NXTDefs.h"
4	5764	73		brtst 5, __RLSBError2, __RLSBResult2
4	5765	76		mov __RLSLastGoodRead2, __RLSReadBuf2
4	5766	78		jmp __RLSBDone2
4	5768	80		mov __RLSReadBuf2, __RLSLastGoodRead2
4	5770	82		arrsize __RLSBytesCount2, __RLSReadBuf2
4	5772	85		subret ____ReadLSBytes2_return
5	5784	0	#pragma macro 25
5	5784	0		acquire __CLSWMutex3
5	5784	1		set __CLSWArgs3.Port, 3
5	5784	4		mov __CLSWArgs3.ReturnLen, __RLSBytesCount3
5	5784	7		mov __CLSWArgs3.Buffer, __RLSReadBuf3
5	5784	9		syscall 21, __CLSWArgs3
5	5784	12		mov __RLSBResult3, __CLSWArgs3.Result
5	5784	15		release __CLSWMutex3
5	5784	16	#line 5784 "NXTDefs.h"
5	5785	16		brtst 4, __RLSBReturn3, __RLSBytesCount3
5	5786	19		arrinit __RLSReadBuf3, __constVal0, __RLSBytesCount3
5	5787	23		brtst 5, __RLSBError3, __RLSBResult3
5	5788	26		set __RLSBIterations3, 4
5	5790	29	#pragma macro 23
5	5790	29		acquire __CLSCSMutex3
5	5790	30		set __CLSCSArgs3.Port, 3
5	5790	33		syscall 23, __CLSCSArgs3
5	5790	36		mov __RLSBytesCount3, __CLSCSArgs3.BytesReady
5	5790	38		mov __RLSBResult3, __CLSCSArgs3.Result
5	5790	40		release __CLSCSMutex3
5	5790	41	#line 5790 "NXTDefs.h"
5	5791	41		sub __RLSBIterations3, __RLSBIterations3, __constVal1
5	5792	45		brtst 2, __RLSBError3, __RLSBIterations3
5	5793	48		brtst 0, __RLSBError3, __RLSBResult3
5	5794	51		brtst 4, __RLSBReadyToRead3, __RLSBResult3
5	5796	54		wait2 NA, __constVal15
5	5797	57		jmp __RLSBDoCheckStatus3
5	5800	59	#pragma macro 25
5	5800	59		acquire __CLSRMutex3
5	5800	60		set __CLSRArgs3.Port, 3
5	5800	63		mov __CLSRArgs3.BufferLen, __RLSBytesCount3
5	5800	66		syscall 22, __CLSRArgs3
5	5800	69		mov __RLSReadBuf3, __CLSRArgs3.Buffer
5	5800	71		mov __RLSBResult3, __CLSRArgs3.Result
5	5800	74		release __CLSRMutex3
5	5800	75	#line 5800 "NXTDefs.h"
5	5801	75		brtst 5, __RLSBError3, __RLSBResult3
5	5802	78		mov __RLSLastGoodRead3, __RLSReadBuf3
5	5803	80		jmp __RLSBDone3
5	5805	82		mov __RLSReadBuf3, __RLSLastGoodRead3
5	5807	84		arrsize __RLSBytesCount3, __RLSReadBuf3
5	5809	87		subret ____ReadLSBytes3_return
6	24	0	#line 24 "D:\Labo - Robotique\Compet'\Projet-Compet.nxc"
6	25	0		set __signed_stack_001depart, 0
6	24	3	#line 24 "D:\Labo - Robotique\Compet'\Projet-Compet.nxc"
6	24	3	#line 24 "D:\Labo - Robotique\Compet'\Projet-Compet.nxc"
6	25	3		set __signed_stack_002depart, 56
6	24	6	#line 24 "D:\Labo - Robotique\Compet'\Projet-Compet.nxc"
6	24	6	#line 24 "D:\Labo - Robotique\Compet'\Projet-Compet.nxc"
6	25	6	#pragma macro 26
6	25	6		acquire __RLSBmutex2
6	25	7		mov __RLSReadBuf2, __RLSBbufLSWrite1
6	25	9		set __RLSBytesCount2, 1
6	25	12		wait2 NA, __constVal15
6	25	15		subcall __ReadLSBytes2, ____ReadLSBytes2_return
6	25	18		index __D0depart, __RLSReadBuf2, 65535
6	25	22		release __RLSBmutex2
6	4857	23	#line 4857 "D:\Labo - Robotique\Compet'\Projet-Compet.nxc"
6	25	23	#line 25 "D:\Labo - Robotique\Compet'\Projet-Compet.nxc"
6	26	23		acquire __TextOutMutex
6	25	24	#line 25 "D:\Labo - Robotique\Compet'\Projet-Compet.nxc"
6	26	24		mov __TextOutArgs.Location.X, __signed_stack_001depart
6	25	27	#line 25 "D:\Labo - Robotique\Compet'\Projet-Compet.nxc"
6	26	27		mov __TextOutArgs.Location.Y, __signed_stack_002depart
6	25	30	#line 25 "D:\Labo - Robotique\Compet'\Projet-Compet.nxc"
6	26	30		set __TextOutArgs.Options, 0
6	25	33	#line 25 "D:\Labo - Robotique\Compet'\Projet-Compet.nxc"
6	26	33		numtostr __TextOutArgs.Text, __D0depart
6	25	36	#line 25 "D:\Labo - Robotique\Compet'\Projet-Compet.nxc"
6	26	36		syscall 13, __TextOutArgs
6	25	39	#line 25 "D:\Labo - Robotique\Compet'\Projet-Compet.nxc"
6	26	39		mov __D0depart, __TextOutArgs.Result
6	25	42	#line 25 "D:\Labo - Robotique\Compet'\Projet-Compet.nxc"
6	26	42		release __TextOutMutex
6	25	43	#line 25 "D:\Labo - Robotique\Compet'\Projet-Compet.nxc"
6	25	43	#line 25 "D:\Labo - Robotique\Compet'\Projet-Compet.nxc"
6	25	43	#line 25 "D:\Labo - Robotique\Compet'\Projet-Compet.nxc"
6	26	43	#pragma macro 26
6	26	43		acquire __RLSBmutex2
6	26	44		mov __RLSReadBuf2, __RLSBbufLSWrite1
6	26	46		set __RLSBytesCount2, 1
6	26	49		wait2 NA, __constVal15
6	26	52		subcall __ReadLSBytes2, ____ReadLSBytes2_return
6	26	55		index __D0depart, __RLSReadBuf2, 65535
6	26	59		release __RLSBmutex2
6	4879	60	#line 4879 "D:\Labo - Robotique\Compet'\Projet-Compet.nxc"
6	25	60	#line 25 "D:\Labo - Robotique\Compet'\Projet-Compet.nxc"
6	26	60		mov __signed_stack_001depart, __D0depart
6	26	62	#line 26 "D:\Labo - Robotique\Compet'\Projet-Compet.nxc"
6	27	62		set __D0depart, 20
6	26	65	#line 26 "D:\Labo - Robotique\Compet'\Projet-Compet.nxc"
6	27	65		cmp 0, __zfdepart, __signed_stack_001depart, __D0depart
6	26	69	#line 26 "D:\Labo - Robotique\Compet'\Projet-Compet.nxc"
6	27	69		mov __D0depart, __zfdepart
6	27	72	#line 27 "D:\Labo - Robotique\Compet'\Projet-Compet.nxc"
6	28	72		brtst 4, __NXC_Label_497, __zfdepart
6	27	75	#line 27 "D:\Labo - Robotique\Compet'\Projet-Compet.nxc"
6	28	75	#pragma macro 26
6	28	75		acquire __RLSBmutex3
6	28	76		mov __RLSReadBuf3, __RLSBbufLSWrite1
6	28	78		set __RLSBytesCount3, 1
6	28	81		wait2 NA, __constVal15
6	28	84		subcall __ReadLSBytes3, ____ReadLSBytes3_return
6	28	87		index __D0depart, __RLSReadBuf3, 65535
6	28	91		release __RLSBmutex3
6	4893	92	#line 4893 "D:\Labo - Robotique\Compet'\Projet-Compet.nxc"
6	27	92	#line 27 "D:\Labo - Robotique\Compet'\Projet-Compet.nxc"
6	28	92		mov __signed_stack_001depart, __D0depart
6	28	94	#line 28 "D:\Labo - Robotique\Compet'\Projet-Compet.nxc"
6	29	94		set __D0depart, 20
6	28	97	#line 28 "D:\Labo - Robotique\Compet'\Projet-Compet.nxc"
6	29	97		cmp 0, __zfdepart, __signed_stack_001depart, __D0depart
6	28	101	#line 28 "D:\Labo - Robotique\Compet'\Projet-Compet.nxc"
6	29	101		mov __D0depart, __zfdepart
6	29	104	#line 29 "D:\Labo - Robotique\Compet'\Projet-Compet.nxc"
6	30	104		brtst 4, __NXC_Label_500, __zfdepart
6	29	107	#line 29 "D:\Labo - Robotique\Compet'\Projet-Compet.nxc"
6	30	107		set __D0depart, 100
6	30	110	#line 30 "D:\Labo - Robotique\Compet'\Projet-Compet.nxc"
6	31	110	#pragma macro 10
6	31	110		acquire __OnRevMutex
6	31	111		neg __OnRev_Tmp, __D0depart
6	31	114		setout __OUT_AB, 2, __OnRev_Tmp, 1, __constVal3, 8, __constVal0, 6, __constVal32, 7, __constVal0, 5, __constVal0, 10, __constVal96, 11, __constVal32, 12, __constVal32, 0, __constVal63
6	31	137		release __OnRevMutex
6	4911	138	#line 4911 "D:\Labo - Robotique\Compet'\Projet-Compet.nxc"
6	30	138	#line 30 "D:\Labo - Robotique\Compet'\Projet-Compet.nxc"
6	30	138	#line 30 "D:\Labo - Robotique\Compet'\Projet-Compet.nxc"
6	31	138		set __Wait_7qG2_ms_7qG2_000_inline_depart, 500
6	30	141	#line 30 "D:\Labo - Robotique\Compet'\Projet-Compet.nxc"
6	7921	141	#line 7921 "NXCDefs.h"
6	7922	141		wait2 NA, __Wait_7qG2_ms_7qG2_000_inline_depart
6	7921	144	#line 7921 "NXCDefs.h"
6	31	144	#line 31 "D:\Labo - Robotique\Compet'\Projet-Compet.nxc"
6	32	144	#line 32 "D:\Labo - Robotique\Compet'\Projet-Compet.nxc"
6	33	144	#pragma macro 7
6	33	144		setout __OUT_AB, 2, __constVal0, 1, __constVal3, 8, __constVal0, 6, __constVal32, 7, __constVal0, 5, __constVal0, 10, __constVal96, 11, __constVal32, 12, __constVal32, 0, __constVal63
6	4928	167	#line 4928 "D:\Labo - Robotique\Compet'\Projet-Compet.nxc"
6	32	167	#line 32 "D:\Labo - Robotique\Compet'\Projet-Compet.nxc"
6	32	167	#line 32 "D:\Labo - Robotique\Compet'\Projet-Compet.nxc"
6	33	167		set __Wait_7qG2_ms_7qG2_000_inline_depart, 500
6	32	170	#line 32 "D:\Labo - Robotique\Compet'\Projet-Compet.nxc"
6	7921	170	#line 7921 "NXCDefs.h"
6	7922	170		wait2 NA, __Wait_7qG2_ms_7qG2_000_inline_depart
6	7921	173	#line 7921 "NXCDefs.h"
6	34	173	#line 34 "D:\Labo - Robotique\Compet'\Projet-Compet.nxc"
6	34	173	#line 34 "D:\Labo - Robotique\Compet'\Projet-Compet.nxc"
6	35	173		set __D0depart, 50
6	35	176	#line 35 "D:\Labo - Robotique\Compet'\Projet-Compet.nxc"
6	36	176	#pragma macro 7
6	36	176		setout __constVal1, 2, __D0depart, 1, __constVal3, 8, __constVal0, 6, __constVal32, 7, __constVal0, 5, __constVal0, 10, __constVal96, 11, __constVal32, 12, __constVal32, 0, __constVal63
6	4945	199	#line 4945 "D:\Labo - Robotique\Compet'\Projet-Compet.nxc"
6	35	199	#line 35 "D:\Labo - Robotique\Compet'\Projet-Compet.nxc"
6	35	199	#line 35 "D:\Labo - Robotique\Compet'\Projet-Compet.nxc"
6	36	199		set __D0depart, 50
6	36	202	#line 36 "D:\Labo - Robotique\Compet'\Projet-Compet.nxc"
6	37	202	#pragma macro 10
6	37	202		acquire __OnRevMutex
6	37	203		neg __OnRev_Tmp, __D0depart
6	37	206		setout __constVal0, 2, __OnRev_Tmp, 1, __constVal3, 8, __constVal0, 6, __constVal32, 7, __constVal0, 5, __constVal0, 10, __constVal96, 11, __constVal32, 12, __constVal32, 0, __constVal63
6	37	229		release __OnRevMutex
6	4952	230	#line 4952 "D:\Labo - Robotique\Compet'\Projet-Compet.nxc"
6	36	230	#line 36 "D:\Labo - Robotique\Compet'\Projet-Compet.nxc"
6	36	230	#line 36 "D:\Labo - Robotique\Compet'\Projet-Compet.nxc"
6	37	230		set __Wait_7qG2_ms_7qG2_000_inline_depart, 100
6	36	233	#line 36 "D:\Labo - Robotique\Compet'\Projet-Compet.nxc"
6	7921	233	#line 7921 "NXCDefs.h"
6	7922	233		wait2 NA, __Wait_7qG2_ms_7qG2_000_inline_depart
6	7921	236	#line 7921 "NXCDefs.h"
6	37	236	#line 37 "D:\Labo - Robotique\Compet'\Projet-Compet.nxc"
6	40	236	#line 40 "D:\Labo - Robotique\Compet'\Projet-Compet.nxc"
6	41	236		jmp __NXC_Label_513
6	40	238	#line 40 "D:\Labo - Robotique\Compet'\Projet-Compet.nxc"
6	41	238		set __D0depart, 100
6	41	241	#line 41 "D:\Labo - Robotique\Compet'\Projet-Compet.nxc"
6	42	241	#pragma macro 10
6	42	241		acquire __OnRevMutex
6	42	242		neg __OnRev_Tmp, __D0depart
6	42	245		setout __OUT_AB, 2, __OnRev_Tmp, 1, __constVal3, 8, __constVal0, 6, __constVal32, 7, __constVal0, 5, __constVal0, 10, __constVal96, 11, __constVal32, 12, __constVal32, 0, __constVal63
6	42	268		release __OnRevMutex
6	4972	269	#line 4972 "D:\Labo - Robotique\Compet'\Projet-Compet.nxc"
6	41	269	#line 41 "D:\Labo - Robotique\Compet'\Projet-Compet.nxc"
6	41	269	#line 41 "D:\Labo - Robotique\Compet'\Projet-Compet.nxc"
6	42	269		set __Wait_7qG2_ms_7qG2_000_inline_depart, 500
6	41	272	#line 41 "D:\Labo - Robotique\Compet'\Projet-Compet.nxc"
6	7921	272	#line 7921 "NXCDefs.h"
6	7922	272		wait2 NA, __Wait_7qG2_ms_7qG2_000_inline_depart
6	7921	275	#line 7921 "NXCDefs.h"
6	45	275	#line 45 "D:\Labo - Robotique\Compet'\Projet-Compet.nxc"
6	45	275	#line 45 "D:\Labo - Robotique\Compet'\Projet-Compet.nxc"
6	46	275		set __D0depart, 50
6	46	278	#line 46 "D:\Labo - Robotique\Compet'\Projet-Compet.nxc"
6	47	278	#pragma macro 10
6	47	278		acquire __OnRevMutex
6	47	279		neg __OnRev_Tmp, __D0depart
6	47	282		setout __constVal1, 2, __OnRev_Tmp, 1, __constVal3, 8, __constVal0, 6, __constVal32, 7, __constVal0, 5, __constVal0, 10, __constVal96, 11, __constVal32, 12, __constVal32, 0, __constVal63
6	47	305		release __OnRevMutex
6	4989	306	#line 4989 "D:\Labo - Robotique\Compet'\Projet-Compet.nxc"
6	46	306	#line 46 "D:\Labo - Robotique\Compet'\Projet-Compet.nxc"
6	46	306	#line 46 "D:\Labo - Robotique\Compet'\Projet-Compet.nxc"
6	47	306		set __D0depart, 50
6	47	309	#line 47 "D:\Labo - Robotique\Compet'\Projet-Compet.nxc"
6	48	309	#pragma macro 7
6	48	309		setout __constVal0, 2, __D0depart, 1, __constVal3, 8, __constVal0, 6, __constVal32, 7, __constVal0, 5, __constVal0, 10, __constVal96, 11, __constVal32, 12, __constVal32, 0, __constVal63
6	4996	332	#line 4996 "D:\Labo - Robotique\Compet'\Projet-Compet.nxc"
6	47	332	#line 47 "D:\Labo - Robotique\Compet'\Projet-Compet.nxc"
6	47	332	#line 47 "D:\Labo - Robotique\Compet'\Projet-Compet.nxc"
6	48	332		set __Wait_7qG2_ms_7qG2_000_inline_depart, 1000
6	47	335	#line 47 "D:\Labo - Robotique\Compet'\Projet-Compet.nxc"
6	7921	335	#line 7921 "NXCDefs.h"
6	7922	335		wait2 NA, __Wait_7qG2_ms_7qG2_000_inline_depart
6	7921	338	#line 7921 "NXCDefs.h"
6	48	338	#line 48 "D:\Labo - Robotique\Compet'\Projet-Compet.nxc"
6	50	338	#line 50 "D:\Labo - Robotique\Compet'\Projet-Compet.nxc"
6	50	338	#line 50 "D:\Labo - Robotique\Compet'\Projet-Compet.nxc"
6	51	338		jmp __NXC_Label_524
6	50	340	#line 50 "D:\Labo - Robotique\Compet'\Projet-Compet.nxc"
6	51	340	#pragma macro 26
6	51	340		acquire __RLSBmutex3
6	51	341		mov __RLSReadBuf3, __RLSBbufLSWrite1
6	51	343		set __RLSBytesCount3, 1
6	51	346		wait2 NA, __constVal15
6	51	349		subcall __ReadLSBytes3, ____ReadLSBytes3_return
6	51	352		index __D0depart, __RLSReadBuf3, 65535
6	51	356		release __RLSBmutex3
6	5014	357	#line 5014 "D:\Labo - Robotique\Compet'\Projet-Compet.nxc"
6	50	357	#line 50 "D:\Labo - Robotique\Compet'\Projet-Compet.nxc"
6	51	357		mov __signed_stack_001depart, __D0depart
6	51	359	#line 51 "D:\Labo - Robotique\Compet'\Projet-Compet.nxc"
6	52	359		set __D0depart, 20
6	51	362	#line 51 "D:\Labo - Robotique\Compet'\Projet-Compet.nxc"
6	52	362		cmp 0, __zfdepart, __signed_stack_001depart, __D0depart
6	51	366	#line 51 "D:\Labo - Robotique\Compet'\Projet-Compet.nxc"
6	52	366		mov __D0depart, __zfdepart
6	53	369	#line 53 "D:\Labo - Robotique\Compet'\Projet-Compet.nxc"
6	54	369		brtst 4, __NXC_Label_527, __zfdepart
6	53	372	#line 53 "D:\Labo - Robotique\Compet'\Projet-Compet.nxc"
6	54	372		set __D0depart, 50
6	54	375	#line 54 "D:\Labo - Robotique\Compet'\Projet-Compet.nxc"
6	55	375	#pragma macro 7
6	55	375		setout __constVal1, 2, __D0depart, 1, __constVal3, 8, __constVal0, 6, __constVal32, 7, __constVal0, 5, __constVal0, 10, __constVal96, 11, __constVal32, 12, __constVal32, 0, __constVal63
6	5032	398	#line 5032 "D:\Labo - Robotique\Compet'\Projet-Compet.nxc"
6	54	398	#line 54 "D:\Labo - Robotique\Compet'\Projet-Compet.nxc"
6	54	398	#line 54 "D:\Labo - Robotique\Compet'\Projet-Compet.nxc"
6	55	398		set __D0depart, 50
6	55	401	#line 55 "D:\Labo - Robotique\Compet'\Projet-Compet.nxc"
6	56	401	#pragma macro 10
6	56	401		acquire __OnRevMutex
6	56	402		neg __OnRev_Tmp, __D0depart
6	56	405		setout __constVal0, 2, __OnRev_Tmp, 1, __constVal3, 8, __constVal0, 6, __constVal32, 7, __constVal0, 5, __constVal0, 10, __constVal96, 11, __constVal32, 12, __constVal32, 0, __constVal63
6	56	428		release __OnRevMutex
6	5039	429	#line 5039 "D:\Labo - Robotique\Compet'\Projet-Compet.nxc"
6	55	429	#line 55 "D:\Labo - Robotique\Compet'\Projet-Compet.nxc"
6	55	429	#line 55 "D:\Labo - Robotique\Compet'\Projet-Compet.nxc"
6	56	429		set __Wait_7qG2_ms_7qG2_000_inline_depart, 50
6	55	432	#line 55 "D:\Labo - Robotique\Compet'\Projet-Compet.nxc"
6	7921	432	#line 7921 "NXCDefs.h"
6	7922	432		wait2 NA, __Wait_7qG2_ms_7qG2_000_inline_depart
6	7921	435	#line 7921 "NXCDefs.h"
6	56	435	#line 56 "D:\Labo - Robotique\Compet'\Projet-Compet.nxc"
6	57	435	#line 57 "D:\Labo - Robotique\Compet'\Projet-Compet.nxc"
6	58	435		jmp __NXC_Label_534
6	57	437	#line 57 "D:\Labo - Robotique\Compet'\Projet-Compet.nxc"
6	58	437	#pragma macro 26
6	58	437		acquire __RLSBmutex3
6	58	438		mov __RLSReadBuf3, __RLSBbufLSWrite1
6	58	440		set __RLSBytesCount3, 1
6	58	443		wait2 NA, __constVal15
6	58	446		subcall __ReadLSBytes3, ____ReadLSBytes3_return
6	58	449		index __D0depart, __RLSReadBuf3, 65535
6	58	453		release __RLSBmutex3
6	5055	454	#line 5055 "D:\Labo - Robotique\Compet'\Projet-Compet.nxc"
6	57	454	#line 57 "D:\Labo - Robotique\Compet'\Projet-Compet.nxc"
6	58	454		mov __signed_stack_001depart, __D0depart
6	58	456	#line 58 "D:\Labo - Robotique\Compet'\Projet-Compet.nxc"
6	59	456		set __D0depart, 250
6	58	459	#line 58 "D:\Labo - Robotique\Compet'\Projet-Compet.nxc"
6	59	459		cmp 1, __zfdepart, __signed_stack_001depart, __D0depart
6	58	463	#line 58 "D:\Labo - Robotique\Compet'\Projet-Compet.nxc"
6	59	463		mov __D0depart, __zfdepart
6	59	466	#line 59 "D:\Labo - Robotique\Compet'\Projet-Compet.nxc"
6	60	466		brtst 4, __NXC_Label_537, __zfdepart
6	59	469	#line 59 "D:\Labo - Robotique\Compet'\Projet-Compet.nxc"
6	60	469		set __D0depart, 50
6	60	472	#line 60 "D:\Labo - Robotique\Compet'\Projet-Compet.nxc"
6	61	472	#pragma macro 10
6	61	472		acquire __OnRevMutex
6	61	473		neg __OnRev_Tmp, __D0depart
6	61	476		setout __constVal1, 2, __OnRev_Tmp, 1, __constVal3, 8, __constVal0, 6, __constVal32, 7, __constVal0, 5, __constVal0, 10, __constVal96, 11, __constVal32, 12, __constVal32, 0, __constVal63
6	61	499		release __OnRevMutex
6	5073	500	#line 5073 "D:\Labo - Robotique\Compet'\Projet-Compet.nxc"
6	60	500	#line 60 "D:\Labo - Robotique\Compet'\Projet-Compet.nxc"
6	60	500	#line 60 "D:\Labo - Robotique\Compet'\Projet-Compet.nxc"
6	61	500		set __D0depart, 50
6	61	503	#line 61 "D:\Labo - Robotique\Compet'\Projet-Compet.nxc"
6	62	503	#pragma macro 7
6	62	503		setout __constVal0, 2, __D0depart, 1, __constVal3, 8, __constVal0, 6, __constVal32, 7, __constVal0, 5, __constVal0, 10, __constVal96, 11, __constVal32, 12, __constVal32, 0, __constVal63
6	5080	526	#line 5080 "D:\Labo - Robotique\Compet'\Projet-Compet.nxc"
6	61	526	#line 61 "D:\Labo - Robotique\Compet'\Projet-Compet.nxc"
6	61	526	#line 61 "D:\Labo - Robotique\Compet'\Projet-Compet.nxc"
6	62	526		set __Wait_7qG2_ms_7qG2_000_inline_depart, 500
6	61	529	#line 61 "D:\Labo - Robotique\Compet'\Projet-Compet.nxc"
6	7921	529	#line 7921 "NXCDefs.h"
6	7922	529		wait2 NA, __Wait_7qG2_ms_7qG2_000_inline_depart
6	7921	532	#line 7921 "NXCDefs.h"
6	62	532	#line 62 "D:\Labo - Robotique\Compet'\Projet-Compet.nxc"
6	63	532	#line 63 "D:\Labo - Robotique\Compet'\Projet-Compet.nxc"
6	63	532	#line 63 "D:\Labo - Robotique\Compet'\Projet-Compet.nxc"
6	63	532	#line 63 "D:\Labo - Robotique\Compet'\Projet-Compet.nxc"
6	63	532	#line 63 "D:\Labo - Robotique\Compet'\Projet-Compet.nxc"
6	64	532		set __D0depart, 57
6	64	535	#line 64 "D:\Labo - Robotique\Compet'\Projet-Compet.nxc"
6	65	535	#pragma macro 7
6	65	535		setout __constVal0, 2, __D0depart, 1, __constVal3, 8, __constVal0, 6, __constVal32, 7, __constVal0, 5, __constVal0, 10, __constVal96, 11, __constVal32, 12, __constVal32, 0, __constVal63
6	5103	558	#line 5103 "D:\Labo - Robotique\Compet'\Projet-Compet.nxc"
6	64	558	#line 64 "D:\Labo - Robotique\Compet'\Projet-Compet.nxc"
6	64	558	#line 64 "D:\Labo - Robotique\Compet'\Projet-Compet.nxc"
6	65	558		set __D0depart, 50
6	65	561	#line 65 "D:\Labo - Robotique\Compet'\Projet-Compet.nxc"
6	66	561	#pragma macro 7
6	66	561		setout __constVal1, 2, __D0depart, 1, __constVal3, 8, __constVal0, 6, __constVal32, 7, __constVal0, 5, __constVal0, 10, __constVal96, 11, __constVal32, 12, __constVal32, 0, __constVal63
6	5110	584	#line 5110 "D:\Labo - Robotique\Compet'\Projet-Compet.nxc"
6	65	584	#line 65 "D:\Labo - Robotique\Compet'\Projet-Compet.nxc"
6	65	584	#line 65 "D:\Labo - Robotique\Compet'\Projet-Compet.nxc"
6	66	584		set __Wait_7qG2_ms_7qG2_000_inline_depart, 20
6	65	587	#line 65 "D:\Labo - Robotique\Compet'\Projet-Compet.nxc"
6	7921	587	#line 7921 "NXCDefs.h"
6	7922	587		wait2 NA, __Wait_7qG2_ms_7qG2_000_inline_depart
6	7921	590	#line 7921 "NXCDefs.h"
6	66	590	#line 66 "D:\Labo - Robotique\Compet'\Projet-Compet.nxc"
6	6069	590	#line 6069 "NXCDefs.h"
6	6070	590	#pragma macro 6
6	6070	590		acquire __PointOutMutex
6	6070	591		mov __PointOutArgs.Location.X, __constVal200
6	6070	594		mov __PointOutArgs.Location.Y, __constVal200
6	6070	597		mov __PointOutArgs.Options, __constVal1
6	6070	599		syscall 14, __PointOutArgs
6	6070	602		release __PointOutMutex
6	5123	603	#line 5123 "NXCDefs.h"
6	6069	603	#line 6069 "NXCDefs.h"
6	67	603	#line 67 "D:\Labo - Robotique\Compet'\Projet-Compet.nxc"
6	67	603	#line 67 "D:\Labo - Robotique\Compet'\Projet-Compet.nxc"
6	68	603		set __signed_stack_001depart, 0
6	67	606	#line 67 "D:\Labo - Robotique\Compet'\Projet-Compet.nxc"
6	67	606	#line 67 "D:\Labo - Robotique\Compet'\Projet-Compet.nxc"
6	68	606		set __signed_stack_002depart, 0
6	67	609	#line 67 "D:\Labo - Robotique\Compet'\Projet-Compet.nxc"
6	67	609	#line 67 "D:\Labo - Robotique\Compet'\Projet-Compet.nxc"
6	68	609	#pragma macro 26
6	68	609		acquire __RLSBmutex3
6	68	610		mov __RLSReadBuf3, __RLSBbufLSWrite1
6	68	612		set __RLSBytesCount3, 1
6	68	615		wait2 NA, __constVal15
6	68	618		subcall __ReadLSBytes3, ____ReadLSBytes3_return
6	68	621		index __D0depart, __RLSReadBuf3, 65535
6	68	625		release __RLSBmutex3
6	5139	626	#line 5139 "D:\Labo - Robotique\Compet'\Projet-Compet.nxc"
6	68	626	#line 68 "D:\Labo - Robotique\Compet'\Projet-Compet.nxc"
6	69	626		acquire __TextOutMutex
6	68	627	#line 68 "D:\Labo - Robotique\Compet'\Projet-Compet.nxc"
6	69	627		mov __TextOutArgs.Location.X, __signed_stack_001depart
6	68	630	#line 68 "D:\Labo - Robotique\Compet'\Projet-Compet.nxc"
6	69	630		mov __TextOutArgs.Location.Y, __signed_stack_002depart
6	68	633	#line 68 "D:\Labo - Robotique\Compet'\Projet-Compet.nxc"
6	69	633		set __TextOutArgs.Options, 0
6	68	636	#line 68 "D:\Labo - Robotique\Compet'\Projet-Compet.nxc"
6	69	636		numtostr __TextOutArgs.Text, __D0depart
6	68	639	#line 68 "D:\Labo - Robotique\Compet'\Projet-Compet.nxc"
6	69	639		syscall 13, __TextOutArgs
6	68	642	#line 68 "D:\Labo - Robotique\Compet'\Projet-Compet.nxc"
6	69	642		mov __D0depart, __TextOutArgs.Result
6	68	645	#line 68 "D:\Labo - Robotique\Compet'\Projet-Compet.nxc"
6	69	645		release __TextOutMutex
6	68	646	#line 68 "D:\Labo - Robotique\Compet'\Projet-Compet.nxc"
6	68	646	#line 68 "D:\Labo - Robotique\Compet'\Projet-Compet.nxc"
6	70	646	#line 70 "D:\Labo - Robotique\Compet'\Projet-Compet.nxc"
6	71	646		subret __depart_return
7	72	0	#line 72 "D:\Labo - Robotique\Compet'\Projet-Compet.nxc"
7	73	0		set __SetSensorColorFull_7qG2_port_7qG2_000_inline_rouge_detecte_inline_suivre_ligne, 0
7	72	3	#line 72 "D:\Labo - Robotique\Compet'\Projet-Compet.nxc"
7	3802	3	#line 3802 "NXCDefs.h"
7	3803	3	#pragma macro 6
7	3803	3		setin __constVal13, __SetSensorColorFull_7qG2_port_7qG2_000_inline_rouge_detecte_inline_suivre_ligne, 0
7	3803	7		setin __constVal0, __SetSensorColorFull_7qG2_port_7qG2_000_inline_rouge_detecte_inline_suivre_ligne, 1
7	3803	11		acquire __ResetSensorMutex
7	3803	12		mov __ResetSensorPort, __SetSensorColorFull_7qG2_port_7qG2_000_inline_rouge_detecte_inline_suivre_ligne
7	3803	14		subcall __ResetSensorSubroutine, ____ResetSensorSubroutine_return
7	3803	17		release __ResetSensorMutex
7	5181	18	#line 5181 "NXCDefs.h"
7	3802	18	#line 3802 "NXCDefs.h"
7	73	18	#line 73 "D:\Labo - Robotique\Compet'\Projet-Compet.nxc"
7	75	18	#line 75 "D:\Labo - Robotique\Compet'\Projet-Compet.nxc"
7	76	18		set __rouge_detecte_7qG2_csr_7qG2_000_inline_suivre_ligne.Port, 0
7	75	21	#line 75 "D:\Labo - Robotique\Compet'\Projet-Compet.nxc"
7	75	21	#line 75 "D:\Labo - Robotique\Compet'\Projet-Compet.nxc"
7	76	21	#line 76 "D:\Labo - Robotique\Compet'\Projet-Compet.nxc"
7	77	21	#pragma macro 4
7	77	21	#line 77 "D:\Labo - Robotique\Compet'\Projet-Compet.nxc"
7	77	21		syscall 34, __rouge_detecte_7qG2_csr_7qG2_000_inline_suivre_ligne
7	75	24	#line 75 "D:\Labo - Robotique\Compet'\Projet-Compet.nxc"
7	75	24	#line 75 "D:\Labo - Robotique\Compet'\Projet-Compet.nxc"
7	75	24	#line 75 "D:\Labo - Robotique\Compet'\Projet-Compet.nxc"
7	75	24	#line 75 "D:\Labo - Robotique\Compet'\Projet-Compet.nxc"
7	77	24	#line 77 "D:\Labo - Robotique\Compet'\Projet-Compet.nxc"
7	76	24	#line 76 "D:\Labo - Robotique\Compet'\Projet-Compet.nxc"
7	77	24	#line 77 "D:\Labo - Robotique\Compet'\Projet-Compet.nxc"
7	78	24		mov __signed_stack_001rouge_detecte_inline_suivre_ligne, __rouge_detecte_7qG2_csr_7qG2_000_inline_suivre_ligne.ColorValue
7	77	27	#line 77 "D:\Labo - Robotique\Compet'\Projet-Compet.nxc"
7	77	27	#line 77 "D:\Labo - Robotique\Compet'\Projet-Compet.nxc"
7	78	27		set __D0rouge_detecte_inline_suivre_ligne, 5
7	77	30	#line 77 "D:\Labo - Robotique\Compet'\Projet-Compet.nxc"
7	78	30		cmp 4, __zfrouge_detecte_inline_suivre_ligne, __signed_stack_001rouge_detecte_inline_suivre_ligne, __D0rouge_detecte_inline_suivre_ligne
7	77	34	#line 77 "D:\Labo - Robotique\Compet'\Projet-Compet.nxc"
7	78	34		mov __D0rouge_detecte_inline_suivre_ligne, __zfrouge_detecte_inline_suivre_ligne
7	77	37	#line 77 "D:\Labo - Robotique\Compet'\Projet-Compet.nxc"
7	78	37		brtst 4, __001__NXC_Label_562, __zfrouge_detecte_inline_suivre_ligne
7	78	40	#line 78 "D:\Labo - Robotique\Compet'\Projet-Compet.nxc"
7	79	40		set __D0rouge_detecte_inline_suivre_ligne, 1
7	78	43	#line 78 "D:\Labo - Robotique\Compet'\Projet-Compet.nxc"
7	79	43		jmp __NXC_Label_suivre_ligne_inline_rouge_detecte_001_end_lbl
7	78	45	#line 78 "D:\Labo - Robotique\Compet'\Projet-Compet.nxc"
7	78	45	#line 78 "D:\Labo - Robotique\Compet'\Projet-Compet.nxc"
7	79	45		jmp __001__NXC_Label_565
7	79	47	#line 79 "D:\Labo - Robotique\Compet'\Projet-Compet.nxc"
7	80	47		set __D0rouge_detecte_inline_suivre_ligne, 0
7	79	50	#line 79 "D:\Labo - Robotique\Compet'\Projet-Compet.nxc"
7	80	50		jmp __NXC_Label_suivre_ligne_inline_rouge_detecte_001_end_lbl
7	79	52	#line 79 "D:\Labo - Robotique\Compet'\Projet-Compet.nxc"
7	79	52	#line 79 "D:\Labo - Robotique\Compet'\Projet-Compet.nxc"
7	84	52	#line 84 "D:\Labo - Robotique\Compet'\Projet-Compet.nxc"
7	85	52		mov __signed_stack_001suivre_ligne, __D0rouge_detecte_inline_suivre_ligne
7	84	54	#line 84 "D:\Labo - Robotique\Compet'\Projet-Compet.nxc"
7	85	54	#line 85 "D:\Labo - Robotique\Compet'\Projet-Compet.nxc"
7	86	54		set __D0suivre_ligne, 1
7	85	57	#line 85 "D:\Labo - Robotique\Compet'\Projet-Compet.nxc"
7	86	57		cmp 4, __zfsuivre_ligne, __signed_stack_001suivre_ligne, __D0suivre_ligne
7	85	61	#line 85 "D:\Labo - Robotique\Compet'\Projet-Compet.nxc"
7	86	61		mov __D0suivre_ligne, __zfsuivre_ligne
7	86	64	#line 86 "D:\Labo - Robotique\Compet'\Projet-Compet.nxc"
7	87	64		brtst 4, __NXC_Label_570, __zfsuivre_ligne
7	86	67	#line 86 "D:\Labo - Robotique\Compet'\Projet-Compet.nxc"
7	87	67		set __D0suivre_ligne, 57
7	87	70	#line 87 "D:\Labo - Robotique\Compet'\Projet-Compet.nxc"
7	88	70	#pragma macro 7
7	88	70		setout __constVal0, 2, __D0suivre_ligne, 1, __constVal3, 8, __constVal0, 6, __constVal32, 7, __constVal0, 5, __constVal0, 10, __constVal96, 11, __constVal32, 12, __constVal32, 0, __constVal63
7	5256	93	#line 5256 "D:\Labo - Robotique\Compet'\Projet-Compet.nxc"
7	87	93	#line 87 "D:\Labo - Robotique\Compet'\Projet-Compet.nxc"
7	87	93	#line 87 "D:\Labo - Robotique\Compet'\Projet-Compet.nxc"
7	88	93		set __D0suivre_ligne, 50
7	88	96	#line 88 "D:\Labo - Robotique\Compet'\Projet-Compet.nxc"
7	89	96	#pragma macro 7
7	89	96		setout __constVal1, 2, __D0suivre_ligne, 1, __constVal3, 8, __constVal0, 6, __constVal32, 7, __constVal0, 5, __constVal0, 10, __constVal96, 11, __constVal32, 12, __constVal32, 0, __constVal63
7	5263	119	#line 5263 "D:\Labo - Robotique\Compet'\Projet-Compet.nxc"
7	88	119	#line 88 "D:\Labo - Robotique\Compet'\Projet-Compet.nxc"
7	88	119	#line 88 "D:\Labo - Robotique\Compet'\Projet-Compet.nxc"
7	89	119		set __Wait_7qG2_ms_7qG2_000_inline_suivre_ligne, 20
7	88	122	#line 88 "D:\Labo - Robotique\Compet'\Projet-Compet.nxc"
7	7921	122	#line 7921 "NXCDefs.h"
7	7922	122		wait2 NA, __Wait_7qG2_ms_7qG2_000_inline_suivre_ligne
7	7921	125	#line 7921 "NXCDefs.h"
7	89	125	#line 89 "D:\Labo - Robotique\Compet'\Projet-Compet.nxc"
7	92	125	#line 92 "D:\Labo - Robotique\Compet'\Projet-Compet.nxc"
7	93	125		jmp __NXC_Label_577
7	92	127	#line 92 "D:\Labo - Robotique\Compet'\Projet-Compet.nxc"
7	93	127		set __D0suivre_ligne, 100
7	93	130	#line 93 "D:\Labo - Robotique\Compet'\Projet-Compet.nxc"
7	94	130	#pragma macro 10
7	94	130		acquire __OnRevMutex
7	94	131		neg __OnRev_Tmp, __D0suivre_ligne
7	94	134		setout __OUT_AB, 2, __OnRev_Tmp, 1, __constVal3, 8, __constVal0, 6, __constVal32, 7, __constVal0, 5, __constVal0, 10, __constVal96, 11, __constVal32, 12, __constVal32, 0, __constVal63
7	94	157		release __OnRevMutex
7	5287	158	#line 5287 "D:\Labo - Robotique\Compet'\Projet-Compet.nxc"
7	93	158	#line 93 "D:\Labo - Robotique\Compet'\Projet-Compet.nxc"
7	93	158	#line 93 "D:\Labo - Robotique\Compet'\Projet-Compet.nxc"
7	94	158		set __Wait_7qG2_ms_7qG2_000_inline_suivre_ligne, 200
7	93	161	#line 93 "D:\Labo - Robotique\Compet'\Projet-Compet.nxc"
7	7921	161	#line 7921 "NXCDefs.h"
7	7922	161		wait2 NA, __Wait_7qG2_ms_7qG2_000_inline_suivre_ligne
7	7921	164	#line 7921 "NXCDefs.h"
7	94	164	#line 94 "D:\Labo - Robotique\Compet'\Projet-Compet.nxc"
7	95	164	#line 95 "D:\Labo - Robotique\Compet'\Projet-Compet.nxc"
7	96	164	#pragma macro 7
7	96	164		setout __OUT_AB, 2, __constVal0, 1, __constVal3, 8, __constVal0, 6, __constVal32, 7, __constVal0, 5, __constVal0, 10, __constVal96, 11, __constVal32, 12, __constVal32, 0, __constVal63
7	5300	187	#line 5300 "D:\Labo - Robotique\Compet'\Projet-Compet.nxc"
7	95	187	#line 95 "D:\Labo - Robotique\Compet'\Projet-Compet.nxc"
7	95	187	#line 95 "D:\Labo - Robotique\Compet'\Projet-Compet.nxc"
7	96	187		set __Wait_7qG2_ms_7qG2_000_inline_suivre_ligne, 100
7	95	190	#line 95 "D:\Labo - Robotique\Compet'\Projet-Compet.nxc"
7	7921	190	#line 7921 "NXCDefs.h"
7	7922	190		wait2 NA, __Wait_7qG2_ms_7qG2_000_inline_suivre_ligne
7	7921	193	#line 7921 "NXCDefs.h"
7	97	193	#line 97 "D:\Labo - Robotique\Compet'\Projet-Compet.nxc"
7	97	193	#line 97 "D:\Labo - Robotique\Compet'\Projet-Compet.nxc"
7	98	193		set __D0suivre_ligne, 25
7	98	196	#line 98 "D:\Labo - Robotique\Compet'\Projet-Compet.nxc"
7	99	196	#pragma macro 7
7	99	196		setout __constVal1, 2, __D0suivre_ligne, 1, __constVal3, 8, __constVal0, 6, __constVal32, 7, __constVal0, 5, __constVal0, 10, __constVal96, 11, __constVal32, 12, __constVal32, 0, __constVal63
7	5317	219	#line 5317 "D:\Labo - Robotique\Compet'\Projet-Compet.nxc"
7	98	219	#line 98 "D:\Labo - Robotique\Compet'\Projet-Compet.nxc"
7	98	219	#line 98 "D:\Labo - Robotique\Compet'\Projet-Compet.nxc"
7	99	219		set __D0suivre_ligne, 25
7	99	222	#line 99 "D:\Labo - Robotique\Compet'\Projet-Compet.nxc"
7	100	222	#pragma macro 10
7	100	222		acquire __OnRevMutex
7	100	223		neg __OnRev_Tmp, __D0suivre_ligne
7	100	226		setout __constVal0, 2, __OnRev_Tmp, 1, __constVal3, 8, __constVal0, 6, __constVal32, 7, __constVal0, 5, __constVal0, 10, __constVal96, 11, __constVal32, 12, __constVal32, 0, __constVal63
7	100	249		release __OnRevMutex
7	5324	250	#line 5324 "D:\Labo - Robotique\Compet'\Projet-Compet.nxc"
7	99	250	#line 99 "D:\Labo - Robotique\Compet'\Projet-Compet.nxc"
7	99	250	#line 99 "D:\Labo - Robotique\Compet'\Projet-Compet.nxc"
7	100	250		set __Wait_7qG2_ms_7qG2_000_inline_suivre_ligne, 500
7	99	253	#line 99 "D:\Labo - Robotique\Compet'\Projet-Compet.nxc"
7	7921	253	#line 7921 "NXCDefs.h"
7	7922	253		wait2 NA, __Wait_7qG2_ms_7qG2_000_inline_suivre_ligne
7	7921	256	#line 7921 "NXCDefs.h"
7	100	256	#line 100 "D:\Labo - Robotique\Compet'\Projet-Compet.nxc"
7	101	256	#line 101 "D:\Labo - Robotique\Compet'\Projet-Compet.nxc"
7	102	256	#pragma macro 7
7	102	256		setout __OUT_AB, 2, __constVal0, 1, __constVal3, 8, __constVal0, 6, __constVal32, 7, __constVal0, 5, __constVal0, 10, __constVal96, 11, __constVal32, 12, __constVal32, 0, __constVal63
7	5337	279	#line 5337 "D:\Labo - Robotique\Compet'\Projet-Compet.nxc"
7	101	279	#line 101 "D:\Labo - Robotique\Compet'\Projet-Compet.nxc"
7	101	279	#line 101 "D:\Labo - Robotique\Compet'\Projet-Compet.nxc"
7	102	279		set __Wait_7qG2_ms_7qG2_000_inline_suivre_ligne, 200
7	101	282	#line 101 "D:\Labo - Robotique\Compet'\Projet-Compet.nxc"
7	7921	282	#line 7921 "NXCDefs.h"
7	7922	282		wait2 NA, __Wait_7qG2_ms_7qG2_000_inline_suivre_ligne
7	7921	285	#line 7921 "NXCDefs.h"
7	103	285	#line 103 "D:\Labo - Robotique\Compet'\Projet-Compet.nxc"
7	72	285	#line 72 "D:\Labo - Robotique\Compet'\Projet-Compet.nxc"
7	73	285		set __SetSensorColorFull_7qG2_port_7qG2_000_inline_rouge_detecte_inline_suivre_ligne, 0
7	72	288	#line 72 "D:\Labo - Robotique\Compet'\Projet-Compet.nxc"
7	3802	288	#line 3802 "NXCDefs.h"
7	3803	288	#pragma macro 6
7	3803	288		setin __constVal13, __SetSensorColorFull_7qG2_port_7qG2_000_inline_rouge_detecte_inline_suivre_ligne, 0
7	3803	292		setin __constVal0, __SetSensorColorFull_7qG2_port_7qG2_000_inline_rouge_detecte_inline_suivre_ligne, 1
7	3803	296		acquire __ResetSensorMutex
7	3803	297		mov __ResetSensorPort, __SetSensorColorFull_7qG2_port_7qG2_000_inline_rouge_detecte_inline_suivre_ligne
7	3803	299		subcall __ResetSensorSubroutine, ____ResetSensorSubroutine_return
7	3803	302		release __ResetSensorMutex
7	5356	303	#line 5356 "NXCDefs.h"
7	3802	303	#line 3802 "NXCDefs.h"
7	73	303	#line 73 "D:\Labo - Robotique\Compet'\Projet-Compet.nxc"
7	75	303	#line 75 "D:\Labo - Robotique\Compet'\Projet-Compet.nxc"
7	76	303		set __rouge_detecte_7qG2_csr_7qG2_000_inline_suivre_ligne.Port, 0
7	75	306	#line 75 "D:\Labo - Robotique\Compet'\Projet-Compet.nxc"
7	75	306	#line 75 "D:\Labo - Robotique\Compet'\Projet-Compet.nxc"
7	76	306	#line 76 "D:\Labo - Robotique\Compet'\Projet-Compet.nxc"
7	77	306	#pragma macro 4
7	77	306	#line 77 "D:\Labo - Robotique\Compet'\Projet-Compet.nxc"
7	77	306		syscall 34, __rouge_detecte_7qG2_csr_7qG2_000_inline_suivre_ligne
7	75	309	#line 75 "D:\Labo - Robotique\Compet'\Projet-Compet.nxc"
7	75	309	#line 75 "D:\Labo - Robotique\Compet'\Projet-Compet.nxc"
7	75	309	#line 75 "D:\Labo - Robotique\Compet'\Projet-Compet.nxc"
7	75	309	#line 75 "D:\Labo - Robotique\Compet'\Projet-Compet.nxc"
7	77	309	#line 77 "D:\Labo - Robotique\Compet'\Projet-Compet.nxc"
7	76	309	#line 76 "D:\Labo - Robotique\Compet'\Projet-Compet.nxc"
7	77	309	#line 77 "D:\Labo - Robotique\Compet'\Projet-Compet.nxc"
7	78	309		mov __signed_stack_001rouge_detecte_inline_suivre_ligne, __rouge_detecte_7qG2_csr_7qG2_000_inline_suivre_ligne.ColorValue
7	77	312	#line 77 "D:\Labo - Robotique\Compet'\Projet-Compet.nxc"
7	77	312	#line 77 "D:\Labo - Robotique\Compet'\Projet-Compet.nxc"
7	78	312		set __D0rouge_detecte_inline_suivre_ligne, 5
7	77	315	#line 77 "D:\Labo - Robotique\Compet'\Projet-Compet.nxc"
7	78	315		cmp 4, __zfrouge_detecte_inline_suivre_ligne, __signed_stack_001rouge_detecte_inline_suivre_ligne, __D0rouge_detecte_inline_suivre_ligne
7	77	319	#line 77 "D:\Labo - Robotique\Compet'\Projet-Compet.nxc"
7	78	319		mov __D0rouge_detecte_inline_suivre_ligne, __zfrouge_detecte_inline_suivre_ligne
7	77	322	#line 77 "D:\Labo - Robotique\Compet'\Projet-Compet.nxc"
7	78	322		brtst 4, __002__NXC_Label_562, __zfrouge_detecte_inline_suivre_ligne
7	78	325	#line 78 "D:\Labo - Robotique\Compet'\Projet-Compet.nxc"
7	79	325		set __D0rouge_detecte_inline_suivre_ligne, 1
7	78	328	#line 78 "D:\Labo - Robotique\Compet'\Projet-Compet.nxc"
7	79	328		jmp __NXC_Label_suivre_ligne_inline_rouge_detecte_002_end_lbl
7	78	330	#line 78 "D:\Labo - Robotique\Compet'\Projet-Compet.nxc"
7	78	330	#line 78 "D:\Labo - Robotique\Compet'\Projet-Compet.nxc"
7	79	330		jmp __002__NXC_Label_565
7	79	332	#line 79 "D:\Labo - Robotique\Compet'\Projet-Compet.nxc"
7	80	332		set __D0rouge_detecte_inline_suivre_ligne, 0
7	79	335	#line 79 "D:\Labo - Robotique\Compet'\Projet-Compet.nxc"
7	80	335		jmp __NXC_Label_suivre_ligne_inline_rouge_detecte_002_end_lbl
7	79	337	#line 79 "D:\Labo - Robotique\Compet'\Projet-Compet.nxc"
7	79	337	#line 79 "D:\Labo - Robotique\Compet'\Projet-Compet.nxc"
7	103	337	#line 103 "D:\Labo - Robotique\Compet'\Projet-Compet.nxc"
7	104	337		mov __signed_stack_001suivre_ligne, __D0rouge_detecte_inline_suivre_ligne
7	103	339	#line 103 "D:\Labo - Robotique\Compet'\Projet-Compet.nxc"
7	104	339	#line 104 "D:\Labo - Robotique\Compet'\Projet-Compet.nxc"
7	105	339		set __D0suivre_ligne, 0
7	104	342	#line 104 "D:\Labo - Robotique\Compet'\Projet-Compet.nxc"
7	105	342		cmp 4, __zfsuivre_ligne, __signed_stack_001suivre_ligne, __D0suivre_ligne
7	104	346	#line 104 "D:\Labo - Robotique\Compet'\Projet-Compet.nxc"
7	105	346		mov __D0suivre_ligne, __zfsuivre_ligne
7	105	349	#line 105 "D:\Labo - Robotique\Compet'\Projet-Compet.nxc"
7	106	349		brtst 4, __NXC_Label_594, __zfsuivre_ligne
7	105	352	#line 105 "D:\Labo - Robotique\Compet'\Projet-Compet.nxc"
7	106	352		set __D0suivre_ligne, 25
7	106	355	#line 106 "D:\Labo - Robotique\Compet'\Projet-Compet.nxc"
7	107	355	#pragma macro 7
7	107	355		setout __constVal0, 2, __D0suivre_ligne, 1, __constVal3, 8, __constVal0, 6, __constVal32, 7, __constVal0, 5, __constVal0, 10, __constVal96, 11, __constVal32, 12, __constVal32, 0, __constVal63
7	5431	378	#line 5431 "D:\Labo - Robotique\Compet'\Projet-Compet.nxc"
7	106	378	#line 106 "D:\Labo - Robotique\Compet'\Projet-Compet.nxc"
7	106	378	#line 106 "D:\Labo - Robotique\Compet'\Projet-Compet.nxc"
7	107	378		set __D0suivre_ligne, 25
7	107	381	#line 107 "D:\Labo - Robotique\Compet'\Projet-Compet.nxc"
7	108	381	#pragma macro 10
7	108	381		acquire __OnRevMutex
7	108	382		neg __OnRev_Tmp, __D0suivre_ligne
7	108	385		setout __constVal1, 2, __OnRev_Tmp, 1, __constVal3, 8, __constVal0, 6, __constVal32, 7, __constVal0, 5, __constVal0, 10, __constVal96, 11, __constVal32, 12, __constVal32, 0, __constVal63
7	108	408		release __OnRevMutex
7	5438	409	#line 5438 "D:\Labo - Robotique\Compet'\Projet-Compet.nxc"
7	107	409	#line 107 "D:\Labo - Robotique\Compet'\Projet-Compet.nxc"
7	107	409	#line 107 "D:\Labo - Robotique\Compet'\Projet-Compet.nxc"
7	108	409		set __Wait_7qG2_ms_7qG2_000_inline_suivre_ligne, 1000
7	107	412	#line 107 "D:\Labo - Robotique\Compet'\Projet-Compet.nxc"
7	7921	412	#line 7921 "NXCDefs.h"
7	7922	412		wait2 NA, __Wait_7qG2_ms_7qG2_000_inline_suivre_ligne
7	7921	415	#line 7921 "NXCDefs.h"
7	108	415	#line 108 "D:\Labo - Robotique\Compet'\Projet-Compet.nxc"
7	110	415	#line 110 "D:\Labo - Robotique\Compet'\Projet-Compet.nxc"
7	115	415	#line 115 "D:\Labo - Robotique\Compet'\Projet-Compet.nxc"
7	115	415	#line 115 "D:\Labo - Robotique\Compet'\Projet-Compet.nxc"
7	116	415		subret __suivre_ligne_return
8	117	0	#line 117 "D:\Labo - Robotique\Compet'\Projet-Compet.nxc"
8	118	0		set __SetSensorType_7qG2_port_7qG2_000_inline_canape, 0
8	117	3	#line 117 "D:\Labo - Robotique\Compet'\Projet-Compet.nxc"
8	117	3	#line 117 "D:\Labo - Robotique\Compet'\Projet-Compet.nxc"
8	118	3		set __SetSensorType_7qG2_type_7qG2_000_inline_canape, 13
8	117	6	#line 117 "D:\Labo - Robotique\Compet'\Projet-Compet.nxc"
8	3663	6	#line 3663 "NXCDefs.h"
8	3664	6		setin __SetSensorType_7qG2_type_7qG2_000_inline_canape, __SetSensorType_7qG2_port_7qG2_000_inline_canape, 0
8	3663	10	#line 3663 "NXCDefs.h"
8	118	10	#line 118 "D:\Labo - Robotique\Compet'\Projet-Compet.nxc"
8	118	10	#line 118 "D:\Labo - Robotique\Compet'\Projet-Compet.nxc"
8	119	10		set __SetSensorType_7qG2_port_7qG2_000_inline_canape, 1
8	118	13	#line 118 "D:\Labo - Robotique\Compet'\Projet-Compet.nxc"
8	118	13	#line 118 "D:\Labo - Robotique\Compet'\Projet-Compet.nxc"
8	119	13		set __SetSensorType_7qG2_type_7qG2_000_inline_canape, 1
8	118	16	#line 118 "D:\Labo - Robotique\Compet'\Projet-Compet.nxc"
8	3663	16	#line 3663 "NXCDefs.h"
8	3664	16		setin __SetSensorType_7qG2_type_7qG2_000_inline_canape, __SetSensorType_7qG2_port_7qG2_000_inline_canape, 0
8	3663	20	#line 3663 "NXCDefs.h"
8	119	20	#line 119 "D:\Labo - Robotique\Compet'\Projet-Compet.nxc"
8	119	20	#line 119 "D:\Labo - Robotique\Compet'\Projet-Compet.nxc"
8	120	20		set __SetSensorUltrasonic_7qG2_port_7qG2_000_inline_canape, 2
8	119	23	#line 119 "D:\Labo - Robotique\Compet'\Projet-Compet.nxc"
8	3768	23	#line 3768 "NXCDefs.h"
8	3769	23		mov __SetSensorLowspeed_7qG2_port_7qG2_000_inline_SetSensorUltrasonic_inline_canape, __constVal2
8	3768	25	#line 3768 "NXCDefs.h"
8	3768	25	#line 3768 "NXCDefs.h"
8	3769	25		mov __SetSensorLowspeed_7qG2_bIsPowered_7qG2_000_inline_SetSensorUltrasonic_inline_canape, __constVal1
8	3758	27	#line 3758 "NXCDefs.h"
8	3759	27		mov __SetSensorType_7qG2_port_7qG2_000_inline_SetSensorLowspeed_inline_SetSensorUltrasonic_inline_canape, __SetSensorLowspeed_7qG2_port_7qG2_000_inline_SetSensorUltrasonic_inline_canape
8	3758	29	#line 3758 "NXCDefs.h"
8	3758	29	#line 3758 "NXCDefs.h"
8	3759	29		mov __DU0SetSensorLowspeed_inline_SetSensorUltrasonic, __SetSensorLowspeed_7qG2_bIsPowered_7qG2_000_inline_SetSensorUltrasonic_inline_canape
8	3758	31	#line 3758 "NXCDefs.h"
8	3759	31		tst 5, __zfSetSensorLowspeed_inline_SetSensorUltrasonic, __DU0SetSensorLowspeed_inline_SetSensorUltrasonic
8	3758	34	#line 3758 "NXCDefs.h"
8	3759	34		brtst 4, __001__001__NXC_Label_36, __zfSetSensorLowspeed_inline_SetSensorUltrasonic
8	3758	37	#line 3758 "NXCDefs.h"
8	3759	37		set __D0SetSensorLowspeed_inline_SetSensorUltrasonic, 11
8	3758	40	#line 3758 "NXCDefs.h"
8	3759	40		jmp __001__001__NXC_Label_37
8	3758	42	#line 3758 "NXCDefs.h"
8	3759	42		set __D0SetSensorLowspeed_inline_SetSensorUltrasonic, 10
8	3758	45	#line 3758 "NXCDefs.h"
8	3759	45		mov __SetSensorType_7qG2_type_7qG2_000_inline_SetSensorLowspeed_inline_SetSensorUltrasonic_inline_canape, __D0SetSensorLowspeed_inline_SetSensorUltrasonic
8	3663	47	#line 3663 "NXCDefs.h"
8	3664	47		setin __SetSensorType_7qG2_type_7qG2_000_inline_SetSensorLowspeed_inline_SetSensorUltrasonic_inline_canape, __SetSensorType_7qG2_port_7qG2_000_inline_SetSensorLowspeed_inline_SetSensorUltrasonic_inline_canape, 0
8	3663	51	#line 3663 "NXCDefs.h"
8	3759	51	#line 3759 "NXCDefs.h"
8	3759	51	#line 3759 "NXCDefs.h"
8	3760	51		mov __SetSensorMode_7qG2_port_7qG2_000_inline_SetSensorLowspeed_inline_SetSensorUltrasonic_inline_canape, __SetSensorLowspeed_7qG2_port_7qG2_000_inline_SetSensorUltrasonic_inline_canape
8	3759	53	#line 3759 "NXCDefs.h"
8	3759	53	#line 3759 "NXCDefs.h"
8	3760	53		set __SetSensorMode_7qG2_mode_7qG2_000_inline_SetSensorLowspeed_inline_SetSensorUltrasonic_inline_canape, 0
8	3759	56	#line 3759 "NXCDefs.h"
8	3676	56	#line 3676 "NXCDefs.h"
8	3677	56		setin __SetSensorMode_7qG2_mode_7qG2_000_inline_SetSensorLowspeed_inline_SetSensorUltrasonic_inline_canape, __SetSensorMode_7qG2_port_7qG2_000_inline_SetSensorLowspeed_inline_SetSensorUltrasonic_inline_canape, 1
8	3676	60	#line 3676 "NXCDefs.h"
8	3760	60	#line 3760 "NXCDefs.h"
8	3760	60	#line 3760 "NXCDefs.h"
8	3761	60		mov __ResetSensor_7qG2_port_7qG2_000_inline_SetSensorLowspeed_inline_SetSensorUltrasonic_inline_canape, __SetSensorLowspeed_7qG2_port_7qG2_000_inline_SetSensorUltrasonic_inline_canape
8	3760	62	#line 3760 "NXCDefs.h"
8	3694	62	#line 3694 "NXCDefs.h"
8	3695	62	#pragma macro 4
8	3695	62		acquire __ResetSensorMutex
8	3695	63		mov __ResetSensorPort, __ResetSensor_7qG2_port_7qG2_000_inline_SetSensorLowspeed_inline_SetSensorUltrasonic_inline_canape
8	3695	65		subcall __ResetSensorSubroutine, ____ResetSensorSubroutine_return
8	3695	68		release __ResetSensorMutex
8	5600	69	#line 5600 "NXCDefs.h"
8	3694	69	#line 3694 "NXCDefs.h"
8	3761	69	#line 3761 "NXCDefs.h"
8	3768	69	#line 3768 "NXCDefs.h"
8	120	69	#line 120 "D:\Labo - Robotique\Compet'\Projet-Compet.nxc"
8	120	69	#line 120 "D:\Labo - Robotique\Compet'\Projet-Compet.nxc"
8	121	69		set __SetSensorUltrasonic_7qG2_port_7qG2_000_inline_canape, 3
8	120	72	#line 120 "D:\Labo - Robotique\Compet'\Projet-Compet.nxc"
8	3768	72	#line 3768 "NXCDefs.h"
8	3769	72		mov __SetSensorLowspeed_7qG2_port_7qG2_000_inline_SetSensorUltrasonic_inline_canape, __constVal3
8	3768	74	#line 3768 "NXCDefs.h"
8	3768	74	#line 3768 "NXCDefs.h"
8	3769	74		mov __SetSensorLowspeed_7qG2_bIsPowered_7qG2_000_inline_SetSensorUltrasonic_inline_canape, __constVal1
8	3758	76	#line 3758 "NXCDefs.h"
8	3759	76		mov __SetSensorType_7qG2_port_7qG2_000_inline_SetSensorLowspeed_inline_SetSensorUltrasonic_inline_canape, __SetSensorLowspeed_7qG2_port_7qG2_000_inline_SetSensorUltrasonic_inline_canape
8	3758	78	#line 3758 "NXCDefs.h"
8	3758	78	#line 3758 "NXCDefs.h"
8	3759	78		mov __DU0SetSensorLowspeed_inline_SetSensorUltrasonic, __SetSensorLowspeed_7qG2_bIsPowered_7qG2_000_inline_SetSensorUltrasonic_inline_canape
8	3758	80	#line 3758 "NXCDefs.h"
8	3759	80		tst 5, __zfSetSensorLowspeed_inline_SetSensorUltrasonic, __DU0SetSensorLowspeed_inline_SetSensorUltrasonic
8	3758	83	#line 3758 "NXCDefs.h"
8	3759	83		brtst 4, __001__002__NXC_Label_36, __zfSetSensorLowspeed_inline_SetSensorUltrasonic
8	3758	86	#line 3758 "NXCDefs.h"
8	3759	86		set __D0SetSensorLowspeed_inline_SetSensorUltrasonic, 11
8	3758	89	#line 3758 "NXCDefs.h"
8	3759	89		jmp __001__002__NXC_Label_37
8	3758	91	#line 3758 "NXCDefs.h"
8	3759	91		set __D0SetSensorLowspeed_inline_SetSensorUltrasonic, 10
8	3758	94	#line 3758 "NXCDefs.h"
8	3759	94		mov __SetSensorType_7qG2_type_7qG2_000_inline_SetSensorLowspeed_inline_SetSensorUltrasonic_inline_canape, __D0SetSensorLowspeed_inline_SetSensorUltrasonic
8	3663	96	#line 3663 "NXCDefs.h"
8	3664	96		setin __SetSensorType_7qG2_type_7qG2_000_inline_SetSensorLowspeed_inline_SetSensorUltrasonic_inline_canape, __SetSensorType_7qG2_port_7qG2_000_inline_SetSensorLowspeed_inline_SetSensorUltrasonic_inline_canape, 0
8	3663	100	#line 3663 "NXCDefs.h"
8	3759	100	#line 3759 "NXCDefs.h"
8	3759	100	#line 3759 "NXCDefs.h"
8	3760	100		mov __SetSensorMode_7qG2_port_7qG2_000_inline_SetSensorLowspeed_inline_SetSensorUltrasonic_inline_canape, __SetSensorLowspeed_7qG2_port_7qG2_000_inline_SetSensorUltrasonic_inline_canape
8	3759	102	#line 3759 "NXCDefs.h"
8	3759	102	#line 3759 "NXCDefs.h"
8	3760	102		set __SetSensorMode_7qG2_mode_7qG2_000_inline_SetSensorLowspeed_inline_SetSensorUltrasonic_inline_canape, 0
8	3759	105	#line 3759 "NXCDefs.h"
8	3676	105	#line 3676 "NXCDefs.h"
8	3677	105		setin __SetSensorMode_7qG2_mode_7qG2_000_inline_SetSensorLowspeed_inline_SetSensorUltrasonic_inline_canape, __SetSensorMode_7qG2_port_7qG2_000_inline_SetSensorLowspeed_inline_SetSensorUltrasonic_inline_canape, 1
8	3676	109	#line 3676 "NXCDefs.h"
8	3760	109	#line 3760 "NXCDefs.h"
8	3760	109	#line 3760 "NXCDefs.h"
8	3761	109		mov __ResetSensor_7qG2_port_7qG2_000_inline_SetSensorLowspeed_inline_SetSensorUltrasonic_inline_canape, __SetSensorLowspeed_7qG2_port_7qG2_000_inline_SetSensorUltrasonic_inline_canape
8	3760	111	#line 3760 "NXCDefs.h"
8	3694	111	#line 3694 "NXCDefs.h"
8	3695	111	#pragma macro 4
8	3695	111		acquire __ResetSensorMutex
8	3695	112		mov __ResetSensorPort, __ResetSensor_7qG2_port_7qG2_000_inline_SetSensorLowspeed_inline_SetSensorUltrasonic_inline_canape
8	3695	114		subcall __ResetSensorSubroutine, ____ResetSensorSubroutine_return
8	3695	117		release __ResetSensorMutex
8	5674	118	#line 5674 "NXCDefs.h"
8	3694	118	#line 3694 "NXCDefs.h"
8	3761	118	#line 3761 "NXCDefs.h"
8	3768	118	#line 3768 "NXCDefs.h"
8	121	118	#line 121 "D:\Labo - Robotique\Compet'\Projet-Compet.nxc"
8	121	118	#line 121 "D:\Labo - Robotique\Compet'\Projet-Compet.nxc"
8	122	118		set __canape_7qG2_count_7qG2_000, 0
8	121	121	#line 121 "D:\Labo - Robotique\Compet'\Projet-Compet.nxc"
8	122	121	#line 122 "D:\Labo - Robotique\Compet'\Projet-Compet.nxc"
8	123	121		set __canape_7qG2_dist_7qG2_000, 20
8	122	124	#line 122 "D:\Labo - Robotique\Compet'\Projet-Compet.nxc"
8	123	124	#line 123 "D:\Labo - Robotique\Compet'\Projet-Compet.nxc"
8	123	124	#line 123 "D:\Labo - Robotique\Compet'\Projet-Compet.nxc"
8	124	124	#line 124 "D:\Labo - Robotique\Compet'\Projet-Compet.nxc"
8	124	124	#line 124 "D:\Labo - Robotique\Compet'\Projet-Compet.nxc"
8	125	124	#line 125 "D:\Labo - Robotique\Compet'\Projet-Compet.nxc"
8	125	124	#line 125 "D:\Labo - Robotique\Compet'\Projet-Compet.nxc"
8	127	124	#line 127 "D:\Labo - Robotique\Compet'\Projet-Compet.nxc"
8	127	124	#line 127 "D:\Labo - Robotique\Compet'\Projet-Compet.nxc"
8	128	124	#line 128 "D:\Labo - Robotique\Compet'\Projet-Compet.nxc"
8	129	124		set __D0canape, 1
8	129	127	#line 129 "D:\Labo - Robotique\Compet'\Projet-Compet.nxc"
8	130	127		tst 5, __zfcanape, __D0canape
8	129	130	#line 129 "D:\Labo - Robotique\Compet'\Projet-Compet.nxc"
8	130	130		brtst 4, __NXC_Label_626, __zfcanape
8	129	133	#line 129 "D:\Labo - Robotique\Compet'\Projet-Compet.nxc"
8	130	133		set __D0canape, 50
8	130	136	#line 130 "D:\Labo - Robotique\Compet'\Projet-Compet.nxc"
8	131	136	#pragma macro 7
8	131	136		setout __constVal1, 2, __D0canape, 1, __constVal3, 8, __constVal0, 6, __constVal32, 7, __constVal0, 5, __constVal0, 10, __constVal96, 11, __constVal32, 12, __constVal32, 0, __constVal63
8	5773	159	#line 5773 "D:\Labo - Robotique\Compet'\Projet-Compet.nxc"
8	130	159	#line 130 "D:\Labo - Robotique\Compet'\Projet-Compet.nxc"
8	130	159	#line 130 "D:\Labo - Robotique\Compet'\Projet-Compet.nxc"
8	131	159		set __D0canape, 57
8	131	162	#line 131 "D:\Labo - Robotique\Compet'\Projet-Compet.nxc"
8	132	162	#pragma macro 7
8	132	162		setout __constVal0, 2, __D0canape, 1, __constVal3, 8, __constVal0, 6, __constVal32, 7, __constVal0, 5, __constVal0, 10, __constVal96, 11, __constVal32, 12, __constVal32, 0, __constVal63
8	5780	185	#line 5780 "D:\Labo - Robotique\Compet'\Projet-Compet.nxc"
8	131	185	#line 131 "D:\Labo - Robotique\Compet'\Projet-Compet.nxc"
8	131	185	#line 131 "D:\Labo - Robotique\Compet'\Projet-Compet.nxc"
8	132	185		set __signed_stack_001canape, 0
8	131	188	#line 131 "D:\Labo - Robotique\Compet'\Projet-Compet.nxc"
8	131	188	#line 131 "D:\Labo - Robotique\Compet'\Projet-Compet.nxc"
8	132	188		set __signed_stack_002canape, 56
8	131	191	#line 131 "D:\Labo - Robotique\Compet'\Projet-Compet.nxc"
8	131	191	#line 131 "D:\Labo - Robotique\Compet'\Projet-Compet.nxc"
8	132	191	#pragma macro 26
8	132	191		acquire __RLSBmutex2
8	132	192		mov __RLSReadBuf2, __RLSBbufLSWrite1
8	132	194		set __RLSBytesCount2, 1
8	132	197		wait2 NA, __constVal15
8	132	200		subcall __ReadLSBytes2, ____ReadLSBytes2_return
8	132	203		index __D0canape, __RLSReadBuf2, 65535
8	132	207		release __RLSBmutex2
8	5795	208	#line 5795 "D:\Labo - Robotique\Compet'\Projet-Compet.nxc"
8	133	208	#line 133 "D:\Labo - Robotique\Compet'\Projet-Compet.nxc"
8	134	208		acquire __TextOutMutex
8	133	209	#line 133 "D:\Labo - Robotique\Compet'\Projet-Compet.nxc"
8	134	209		mov __TextOutArgs.Location.X, __signed_stack_001canape
8	133	212	#line 133 "D:\Labo - Robotique\Compet'\Projet-Compet.nxc"
8	134	212		mov __TextOutArgs.Location.Y, __signed_stack_002canape
8	133	215	#line 133 "D:\Labo - Robotique\Compet'\Projet-Compet.nxc"
8	134	215		set __TextOutArgs.Options, 0
8	133	218	#line 133 "D:\Labo - Robotique\Compet'\Projet-Compet.nxc"
8	134	218		numtostr __TextOutArgs.Text, __D0canape
8	133	221	#line 133 "D:\Labo - Robotique\Compet'\Projet-Compet.nxc"
8	134	221		syscall 13, __TextOutArgs
8	133	224	#line 133 "D:\Labo - Robotique\Compet'\Projet-Compet.nxc"
8	134	224		mov __D0canape, __TextOutArgs.Result
8	133	227	#line 133 "D:\Labo - Robotique\Compet'\Projet-Compet.nxc"
8	134	227		release __TextOutMutex
8	133	228	#line 133 "D:\Labo - Robotique\Compet'\Projet-Compet.nxc"
8	133	228	#line 133 "D:\Labo - Robotique\Compet'\Projet-Compet.nxc"
8	133	228	#line 133 "D:\Labo - Robotique\Compet'\Projet-Compet.nxc"
8	134	228	#pragma macro 26
8	134	228		acquire __RLSBmutex2
8	134	229		mov __RLSReadBuf2, __RLSBbufLSWrite1
8	134	231		set __RLSBytesCount2, 1
8	134	234		wait2 NA, __constVal15
8	134	237		subcall __ReadLSBytes2, ____ReadLSBytes2_return
8	134	240		index __D0canape, __RLSReadBuf2, 65535
8	134	244		release __RLSBmutex2
8	5817	245	#line 5817 "D:\Labo - Robotique\Compet'\Projet-Compet.nxc"
8	133	245	#line 133 "D:\Labo - Robotique\Compet'\Projet-Compet.nxc"
8	134	245		mov __signed_stack_001canape, __D0canape
8	134	247	#line 134 "D:\Labo - Robotique\Compet'\Projet-Compet.nxc"
8	135	247		mov __D0canape, __canape_7qG2_dist_7qG2_000
8	134	249	#line 134 "D:\Labo - Robotique\Compet'\Projet-Compet.nxc"
8	135	249		cmp 0, __zfcanape, __signed_stack_001canape, __D0canape
8	134	253	#line 134 "D:\Labo - Robotique\Compet'\Projet-Compet.nxc"
8	135	253		mov __D0canape, __zfcanape
8	135	256	#line 135 "D:\Labo - Robotique\Compet'\Projet-Compet.nxc"
8	136	256		brtst 4, __NXC_Label_641, __zfcanape
8	136	259	#line 136 "D:\Labo - Robotique\Compet'\Projet-Compet.nxc"
8	137	259	#pragma macro 7
8	137	259		setout __OUT_AB, 2, __constVal0, 1, __constVal3, 8, __constVal0, 6, __constVal32, 7, __constVal0, 5, __constVal0, 10, __constVal96, 11, __constVal32, 12, __constVal32, 0, __constVal63
8	5831	282	#line 5831 "D:\Labo - Robotique\Compet'\Projet-Compet.nxc"
8	136	282	#line 136 "D:\Labo - Robotique\Compet'\Projet-Compet.nxc"
8	136	282	#line 136 "D:\Labo - Robotique\Compet'\Projet-Compet.nxc"
8	137	282		set __Wait_7qG2_ms_7qG2_000_inline_canape, 100
8	136	285	#line 136 "D:\Labo - Robotique\Compet'\Projet-Compet.nxc"
8	7921	285	#line 7921 "NXCDefs.h"
8	7922	285		wait2 NA, __Wait_7qG2_ms_7qG2_000_inline_canape
8	7921	288	#line 7921 "NXCDefs.h"
8	136	288	#line 136 "D:\Labo - Robotique\Compet'\Projet-Compet.nxc"
8	137	288	#line 137 "D:\Labo - Robotique\Compet'\Projet-Compet.nxc"
8	137	288	#line 137 "D:\Labo - Robotique\Compet'\Projet-Compet.nxc"
8	138	288		set __D0canape, 57
8	138	291	#line 138 "D:\Labo - Robotique\Compet'\Projet-Compet.nxc"
8	139	291	#pragma macro 10
8	139	291		acquire __OnRevMutex
8	139	292		neg __OnRev_Tmp, __D0canape
8	139	295		setout __constVal0, 2, __OnRev_Tmp, 1, __constVal3, 8, __constVal0, 6, __constVal32, 7, __constVal0, 5, __constVal0, 10, __constVal96, 11, __constVal32, 12, __constVal32, 0, __constVal63
8	139	318		release __OnRevMutex
8	5853	319	#line 5853 "D:\Labo - Robotique\Compet'\Projet-Compet.nxc"
8	138	319	#line 138 "D:\Labo - Robotique\Compet'\Projet-Compet.nxc"
8	138	319	#line 138 "D:\Labo - Robotique\Compet'\Projet-Compet.nxc"
8	139	319		set __D0canape, 50
8	139	322	#line 139 "D:\Labo - Robotique\Compet'\Projet-Compet.nxc"
8	140	322	#pragma macro 10
8	140	322		acquire __OnRevMutex
8	140	323		neg __OnRev_Tmp, __D0canape
8	140	326		setout __constVal1, 2, __OnRev_Tmp, 1, __constVal3, 8, __constVal0, 6, __constVal32, 7, __constVal0, 5, __constVal0, 10, __constVal96, 11, __constVal32, 12, __constVal32, 0, __constVal63
8	140	349		release __OnRevMutex
8	5860	350	#line 5860 "D:\Labo - Robotique\Compet'\Projet-Compet.nxc"
8	139	350	#line 139 "D:\Labo - Robotique\Compet'\Projet-Compet.nxc"
8	139	350	#line 139 "D:\Labo - Robotique\Compet'\Projet-Compet.nxc"
8	140	350	#pragma macro 26
8	140	350		acquire __RLSBmutex3
8	140	351		mov __RLSReadBuf3, __RLSBbufLSWrite1
8	140	353		set __RLSBytesCount3, 1
8	140	356		wait2 NA, __constVal15
8	140	359		subcall __ReadLSBytes3, ____ReadLSBytes3_return
8	140	362		index __D0canape, __RLSReadBuf3, 65535
8	140	366		release __RLSBmutex3
8	5863	367	#line 5863 "D:\Labo - Robotique\Compet'\Projet-Compet.nxc"
8	139	367	#line 139 "D:\Labo - Robotique\Compet'\Projet-Compet.nxc"
8	140	367		mov __signed_stack_001canape, __D0canape
8	139	369	#line 139 "D:\Labo - Robotique\Compet'\Projet-Compet.nxc"
8	140	369		set __D0canape, 25
8	139	372	#line 139 "D:\Labo - Robotique\Compet'\Projet-Compet.nxc"
8	140	372		cmp 1, __zfcanape, __signed_stack_001canape, __D0canape
8	139	376	#line 139 "D:\Labo - Robotique\Compet'\Projet-Compet.nxc"
8	140	376		mov __D0canape, __zfcanape
8	140	379	#line 140 "D:\Labo - Robotique\Compet'\Projet-Compet.nxc"
8	140	379	#line 140 "D:\Labo - Robotique\Compet'\Projet-Compet.nxc"
8	141	379	#line 141 "D:\Labo - Robotique\Compet'\Projet-Compet.nxc"
8	142	379	#line 142 "D:\Labo - Robotique\Compet'\Projet-Compet.nxc"
8	143	379	#pragma macro 7
8	143	379		setout __OUT_AB, 2, __constVal0, 1, __constVal3, 8, __constVal0, 6, __constVal32, 7, __constVal0, 5, __constVal0, 10, __constVal96, 11, __constVal32, 12, __constVal32, 0, __constVal63
8	5880	402	#line 5880 "D:\Labo - Robotique\Compet'\Projet-Compet.nxc"
8	142	402	#line 142 "D:\Labo - Robotique\Compet'\Projet-Compet.nxc"
8	142	402	#line 142 "D:\Labo - Robotique\Compet'\Projet-Compet.nxc"
8	143	402		set __signed_stack_001canape, 50
8	142	405	#line 142 "D:\Labo - Robotique\Compet'\Projet-Compet.nxc"
8	142	405	#line 142 "D:\Labo - Robotique\Compet'\Projet-Compet.nxc"
8	143	405		set __D0canape, 230
8	143	408	#line 143 "D:\Labo - Robotique\Compet'\Projet-Compet.nxc"
8	144	408	#pragma macro 33
8	144	408		acquire __rotateMutex0
8	144	409		arrbuild __rotate_ports0, __constVal0
8	144	413		mov __rotate_power0, __signed_stack_001canape
8	144	415		mov __rotate_angle0, __D0canape
8	144	417		mov __rotate_turnpct0, __constVal0
8	144	419		mov __rotate_sync0, __constVal0
8	144	421		mov __rotate_stop0, __constVal1
8	144	423		mov __rotate_theRVP0, __constVal32
8	144	425		mov __rotate_theRVI0, __constVal0
8	144	427		mov __rotate_theRVD0, __constVal96
8	144	429		subcall __RotateMotor0, ____RotateMotor0_return
8	144	432		release __rotateMutex0
8	5893	433	#line 5893 "D:\Labo - Robotique\Compet'\Projet-Compet.nxc"
8	143	433	#line 143 "D:\Labo - Robotique\Compet'\Projet-Compet.nxc"
8	143	433	#line 143 "D:\Labo - Robotique\Compet'\Projet-Compet.nxc"
8	144	433		set __signed_stack_001canape, 50
8	143	436	#line 143 "D:\Labo - Robotique\Compet'\Projet-Compet.nxc"
8	143	436	#line 143 "D:\Labo - Robotique\Compet'\Projet-Compet.nxc"
8	144	436		mov __D0canape, __constValNeg230
8	144	438	#line 144 "D:\Labo - Robotique\Compet'\Projet-Compet.nxc"
8	145	438	#pragma macro 33
8	145	438		acquire __rotateMutex1
8	145	439		arrbuild __rotate_ports1, __constVal1
8	145	443		mov __rotate_power1, __signed_stack_001canape
8	145	446		mov __rotate_angle1, __D0canape
8	145	448		mov __rotate_turnpct1, __constVal0
8	145	450		mov __rotate_sync1, __constVal0
8	145	452		mov __rotate_stop1, __constVal1
8	145	454		mov __rotate_theRVP1, __constVal32
8	145	456		mov __rotate_theRVI1, __constVal0
8	145	458		mov __rotate_theRVD1, __constVal96
8	145	460		subcall __RotateMotor1, ____RotateMotor1_return
8	145	463		release __rotateMutex1
8	5906	464	#line 5906 "D:\Labo - Robotique\Compet'\Projet-Compet.nxc"
8	144	464	#line 144 "D:\Labo - Robotique\Compet'\Projet-Compet.nxc"
8	147	464	#line 147 "D:\Labo - Robotique\Compet'\Projet-Compet.nxc"
8	147	464	#line 147 "D:\Labo - Robotique\Compet'\Projet-Compet.nxc"
8	148	464		set __canape_7qG2_i_7qG2_000, 0
8	147	467	#line 147 "D:\Labo - Robotique\Compet'\Projet-Compet.nxc"
8	147	467	#line 147 "D:\Labo - Robotique\Compet'\Projet-Compet.nxc"
8	148	467		mov __signed_stack_001canape, __canape_7qG2_i_7qG2_000
8	147	469	#line 147 "D:\Labo - Robotique\Compet'\Projet-Compet.nxc"
8	147	469	#line 147 "D:\Labo - Robotique\Compet'\Projet-Compet.nxc"
8	148	469		set __D0canape, 3
8	147	472	#line 147 "D:\Labo - Robotique\Compet'\Projet-Compet.nxc"
8	148	472		cmp 2, __zfcanape, __signed_stack_001canape, __D0canape
8	147	476	#line 147 "D:\Labo - Robotique\Compet'\Projet-Compet.nxc"
8	148	476		mov __D0canape, __zfcanape
8	147	479	#line 147 "D:\Labo - Robotique\Compet'\Projet-Compet.nxc"
8	148	479		brtst 4, __NXC_Label_660, __zfcanape
8	147	482	#line 147 "D:\Labo - Robotique\Compet'\Projet-Compet.nxc"
8	148	482		jmp __NXC_Label_661
8	148	484	#line 148 "D:\Labo - Robotique\Compet'\Projet-Compet.nxc"
8	149	484		add __canape_7qG2_i_7qG2_000, __canape_7qG2_i_7qG2_000, __constVal1
8	149	488	#line 149 "D:\Labo - Robotique\Compet'\Projet-Compet.nxc"
8	150	488		jmp __NXC_Label_659
8	149	490	#line 149 "D:\Labo - Robotique\Compet'\Projet-Compet.nxc"
8	150	490	#pragma macro 26
8	150	490		acquire __RLSBmutex2
8	150	491		mov __RLSReadBuf2, __RLSBbufLSWrite1
8	150	493		set __RLSBytesCount2, 1
8	150	496		wait2 NA, __constVal15
8	150	499		subcall __ReadLSBytes2, ____ReadLSBytes2_return
8	150	502		index __D0canape, __RLSReadBuf2, 65535
8	150	506		release __RLSBmutex2
8	5940	507	#line 5940 "D:\Labo - Robotique\Compet'\Projet-Compet.nxc"
8	149	507	#line 149 "D:\Labo - Robotique\Compet'\Projet-Compet.nxc"
8	150	507		mov __signed_stack_001canape, __D0canape
8	150	509	#line 150 "D:\Labo - Robotique\Compet'\Projet-Compet.nxc"
8	151	509		mov __D0canape, __canape_7qG2_dist_7qG2_000
8	150	511	#line 150 "D:\Labo - Robotique\Compet'\Projet-Compet.nxc"
8	151	511		cmp 0, __zfcanape, __signed_stack_001canape, __D0canape
8	150	515	#line 150 "D:\Labo - Robotique\Compet'\Projet-Compet.nxc"
8	151	515		mov __D0canape, __zfcanape
8	151	518	#line 151 "D:\Labo - Robotique\Compet'\Projet-Compet.nxc"
8	152	518		brtst 4, __NXC_Label_669, __zfcanape
8	151	521	#line 151 "D:\Labo - Robotique\Compet'\Projet-Compet.nxc"
8	152	521		mov __signed_stack_001canape, __canape_7qG2_count_7qG2_000
8	151	523	#line 151 "D:\Labo - Robotique\Compet'\Projet-Compet.nxc"
8	151	523	#line 151 "D:\Labo - Robotique\Compet'\Projet-Compet.nxc"
8	152	523		set __D0canape, 0
8	151	526	#line 151 "D:\Labo - Robotique\Compet'\Projet-Compet.nxc"
8	152	526		cmp 4, __zfcanape, __signed_stack_001canape, __D0canape
8	151	530	#line 151 "D:\Labo - Robotique\Compet'\Projet-Compet.nxc"
8	152	530		mov __D0canape, __zfcanape
8	151	533	#line 151 "D:\Labo - Robotique\Compet'\Projet-Compet.nxc"
8	152	533		brtst 5, __NXC_Label_670, __zfcanape
8	151	536	#line 151 "D:\Labo - Robotique\Compet'\Projet-Compet.nxc"
8	152	536		mov __signed_stack_001canape, __D0canape
8	151	538	#line 151 "D:\Labo - Robotique\Compet'\Projet-Compet.nxc"
8	152	538		mov __signed_stack_002canape, __canape_7qG2_count_7qG2_000
8	151	540	#line 151 "D:\Labo - Robotique\Compet'\Projet-Compet.nxc"
8	151	540	#line 151 "D:\Labo - Robotique\Compet'\Projet-Compet.nxc"
8	152	540		set __D0canape, 2
8	151	543	#line 151 "D:\Labo - Robotique\Compet'\Projet-Compet.nxc"
8	152	543		cmp 4, __zfcanape, __signed_stack_002canape, __D0canape
8	151	547	#line 151 "D:\Labo - Robotique\Compet'\Projet-Compet.nxc"
8	152	547	#line 152 "D:\Labo - Robotique\Compet'\Projet-Compet.nxc"
8	153	547		or __D0canape, __signed_stack_001canape, __zfcanape
8	153	551	#line 153 "D:\Labo - Robotique\Compet'\Projet-Compet.nxc"
8	154	551		tst 5, __zfcanape, __D0canape
8	153	554	#line 153 "D:\Labo - Robotique\Compet'\Projet-Compet.nxc"
8	154	554		brtst 4, __NXC_Label_677, __zfcanape
8	154	557	#line 154 "D:\Labo - Robotique\Compet'\Projet-Compet.nxc"
8	155	557	#pragma macro 7
8	155	557		setout __OUT_AB, 2, __constVal0, 1, __constVal3, 8, __constVal0, 6, __constVal32, 7, __constVal0, 5, __constVal0, 10, __constVal96, 11, __constVal32, 12, __constVal32, 0, __constVal63
8	5991	580	#line 5991 "D:\Labo - Robotique\Compet'\Projet-Compet.nxc"
8	154	580	#line 154 "D:\Labo - Robotique\Compet'\Projet-Compet.nxc"
8	154	580	#line 154 "D:\Labo - Robotique\Compet'\Projet-Compet.nxc"
8	155	580		set __signed_stack_001canape, 50
8	154	583	#line 154 "D:\Labo - Robotique\Compet'\Projet-Compet.nxc"
8	154	583	#line 154 "D:\Labo - Robotique\Compet'\Projet-Compet.nxc"
8	155	583		set __D0canape, 210
8	155	586	#line 155 "D:\Labo - Robotique\Compet'\Projet-Compet.nxc"
8	156	586	#pragma macro 33
8	156	586		acquire __rotateMutex1
8	156	587		arrbuild __rotate_ports1, __constVal1
8	156	591		mov __rotate_power1, __signed_stack_001canape
8	156	594		mov __rotate_angle1, __D0canape
8	156	596		mov __rotate_turnpct1, __constVal0
8	156	598		mov __rotate_sync1, __constVal0
8	156	600		mov __rotate_stop1, __constVal1
8	156	602		mov __rotate_theRVP1, __constVal32
8	156	604		mov __rotate_theRVI1, __constVal0
8	156	606		mov __rotate_theRVD1, __constVal96
8	156	608		subcall __RotateMotor1, ____RotateMotor1_return
8	156	611		release __rotateMutex1
8	6004	612	#line 6004 "D:\Labo - Robotique\Compet'\Projet-Compet.nxc"
8	155	612	#line 155 "D:\Labo - Robotique\Compet'\Projet-Compet.nxc"
8	155	612	#line 155 "D:\Labo - Robotique\Compet'\Projet-Compet.nxc"
8	156	612		set __signed_stack_001canape, 50
8	155	615	#line 155 "D:\Labo - Robotique\Compet'\Projet-Compet.nxc"
8	155	615	#line 155 "D:\Labo - Robotique\Compet'\Projet-Compet.nxc"
8	156	615		mov __D0canape, __constValNeg210
8	156	617	#line 156 "D:\Labo - Robotique\Compet'\Projet-Compet.nxc"
8	157	617	#pragma macro 33
8	157	617		acquire __rotateMutex0
8	157	618		arrbuild __rotate_ports0, __constVal0
8	157	622		mov __rotate_power0, __signed_stack_001canape
8	157	624		mov __rotate_angle0, __D0canape
8	157	626		mov __rotate_turnpct0, __constVal0
8	157	628		mov __rotate_sync0, __constVal0
8	157	630		mov __rotate_stop0, __constVal1
8	157	632		mov __rotate_theRVP0, __constVal32
8	157	634		mov __rotate_theRVI0, __constVal0
8	157	636		mov __rotate_theRVD0, __constVal96
8	157	638		subcall __RotateMotor0, ____RotateMotor0_return
8	157	641		release __rotateMutex0
8	6017	642	#line 6017 "D:\Labo - Robotique\Compet'\Projet-Compet.nxc"
8	156	642	#line 156 "D:\Labo - Robotique\Compet'\Projet-Compet.nxc"
8	157	642	#line 157 "D:\Labo - Robotique\Compet'\Projet-Compet.nxc"
8	158	642		add __canape_7qG2_count_7qG2_000, __canape_7qG2_count_7qG2_000, __constVal1
8	157	646	#line 157 "D:\Labo - Robotique\Compet'\Projet-Compet.nxc"
8	158	646	#line 158 "D:\Labo - Robotique\Compet'\Projet-Compet.nxc"
8	159	646		set __canape_7qG2_dist_7qG2_000, 15
8	158	649	#line 158 "D:\Labo - Robotique\Compet'\Projet-Compet.nxc"
8	158	649	#line 158 "D:\Labo - Robotique\Compet'\Projet-Compet.nxc"
8	159	649	#line 159 "D:\Labo - Robotique\Compet'\Projet-Compet.nxc"
8	160	649	#pragma macro 7
8	160	649		setout __OUT_AB, 2, __constVal0, 1, __constVal3, 8, __constVal0, 6, __constVal32, 7, __constVal0, 5, __constVal0, 10, __constVal96, 11, __constVal32, 12, __constVal32, 0, __constVal63
8	6030	672	#line 6030 "D:\Labo - Robotique\Compet'\Projet-Compet.nxc"
8	159	672	#line 159 "D:\Labo - Robotique\Compet'\Projet-Compet.nxc"
8	160	672	#line 160 "D:\Labo - Robotique\Compet'\Projet-Compet.nxc"
8	161	672		jmp __NXC_Label_662
8	160	674	#line 160 "D:\Labo - Robotique\Compet'\Projet-Compet.nxc"
8	162	674	#line 162 "D:\Labo - Robotique\Compet'\Projet-Compet.nxc"
8	162	674	#line 162 "D:\Labo - Robotique\Compet'\Projet-Compet.nxc"
8	163	674		mov __signed_stack_001canape, __canape_7qG2_count_7qG2_000
8	162	676	#line 162 "D:\Labo - Robotique\Compet'\Projet-Compet.nxc"
8	163	676	#line 163 "D:\Labo - Robotique\Compet'\Projet-Compet.nxc"
8	164	676		set __D0canape, 1
8	163	679	#line 163 "D:\Labo - Robotique\Compet'\Projet-Compet.nxc"
8	164	679		cmp 4, __zfcanape, __signed_stack_001canape, __D0canape
8	163	683	#line 163 "D:\Labo - Robotique\Compet'\Projet-Compet.nxc"
8	164	683		mov __D0canape, __zfcanape
8	164	686	#line 164 "D:\Labo - Robotique\Compet'\Projet-Compet.nxc"
8	165	686		brtst 4, __NXC_Label_690, __zfcanape
8	165	689	#line 165 "D:\Labo - Robotique\Compet'\Projet-Compet.nxc"
8	166	689	#pragma macro 7
8	166	689		setout __OUT_AB, 2, __constVal0, 1, __constVal3, 8, __constVal0, 6, __constVal32, 7, __constVal0, 5, __constVal0, 10, __constVal96, 11, __constVal32, 12, __constVal32, 0, __constVal63
8	6052	712	#line 6052 "D:\Labo - Robotique\Compet'\Projet-Compet.nxc"
8	165	712	#line 165 "D:\Labo - Robotique\Compet'\Projet-Compet.nxc"
8	165	712	#line 165 "D:\Labo - Robotique\Compet'\Projet-Compet.nxc"
8	166	712		set __signed_stack_001canape, 50
8	165	715	#line 165 "D:\Labo - Robotique\Compet'\Projet-Compet.nxc"
8	165	715	#line 165 "D:\Labo - Robotique\Compet'\Projet-Compet.nxc"
8	166	715		set __D0canape, 210
8	166	718	#line 166 "D:\Labo - Robotique\Compet'\Projet-Compet.nxc"
8	167	718	#pragma macro 33
8	167	718		acquire __rotateMutex0
8	167	719		arrbuild __rotate_ports0, __constVal0
8	167	723		mov __rotate_power0, __signed_stack_001canape
8	167	725		mov __rotate_angle0, __D0canape
8	167	727		mov __rotate_turnpct0, __constVal0
8	167	729		mov __rotate_sync0, __constVal0
8	167	731		mov __rotate_stop0, __constVal1
8	167	733		mov __rotate_theRVP0, __constVal32
8	167	735		mov __rotate_theRVI0, __constVal0
8	167	737		mov __rotate_theRVD0, __constVal96
8	167	739		subcall __RotateMotor0, ____RotateMotor0_return
8	167	742		release __rotateMutex0
8	6065	743	#line 6065 "D:\Labo - Robotique\Compet'\Projet-Compet.nxc"
8	166	743	#line 166 "D:\Labo - Robotique\Compet'\Projet-Compet.nxc"
8	166	743	#line 166 "D:\Labo - Robotique\Compet'\Projet-Compet.nxc"
8	167	743		set __signed_stack_001canape, 50
8	166	746	#line 166 "D:\Labo - Robotique\Compet'\Projet-Compet.nxc"
8	166	746	#line 166 "D:\Labo - Robotique\Compet'\Projet-Compet.nxc"
8	167	746		mov __D0canape, __constValNeg210
8	168	748	#line 168 "D:\Labo - Robotique\Compet'\Projet-Compet.nxc"
8	169	748	#pragma macro 33
8	169	748		acquire __rotateMutex1
8	169	749		arrbuild __rotate_ports1, __constVal1
8	169	753		mov __rotate_power1, __signed_stack_001canape
8	169	756		mov __rotate_angle1, __D0canape
8	169	758		mov __rotate_turnpct1, __constVal0
8	169	760		mov __rotate_sync1, __constVal0
8	169	762		mov __rotate_stop1, __constVal1
8	169	764		mov __rotate_theRVP1, __constVal32
8	169	766		mov __rotate_theRVI1, __constVal0
8	169	768		mov __rotate_theRVD1, __constVal96
8	169	770		subcall __RotateMotor1, ____RotateMotor1_return
8	169	773		release __rotateMutex1
8	6078	774	#line 6078 "D:\Labo - Robotique\Compet'\Projet-Compet.nxc"
8	168	774	#line 168 "D:\Labo - Robotique\Compet'\Projet-Compet.nxc"
8	169	774	#line 169 "D:\Labo - Robotique\Compet'\Projet-Compet.nxc"
8	170	774		add __canape_7qG2_count_7qG2_000, __canape_7qG2_count_7qG2_000, __constVal1
8	169	778	#line 169 "D:\Labo - Robotique\Compet'\Projet-Compet.nxc"
8	170	778	#line 170 "D:\Labo - Robotique\Compet'\Projet-Compet.nxc"
8	171	778		set __canape_7qG2_dist_7qG2_000, 15
8	170	781	#line 170 "D:\Labo - Robotique\Compet'\Projet-Compet.nxc"
8	170	781	#line 170 "D:\Labo - Robotique\Compet'\Projet-Compet.nxc"
8	171	781	#line 171 "D:\Labo - Robotique\Compet'\Projet-Compet.nxc"
8	172	781	#pragma macro 7
8	172	781		setout __OUT_AB, 2, __constVal0, 1, __constVal3, 8, __constVal0, 6, __constVal32, 7, __constVal0, 5, __constVal0, 10, __constVal96, 11, __constVal32, 12, __constVal32, 0, __constVal63
8	6091	804	#line 6091 "D:\Labo - Robotique\Compet'\Projet-Compet.nxc"
8	171	804	#line 171 "D:\Labo - Robotique\Compet'\Projet-Compet.nxc"
8	172	804	#line 172 "D:\Labo - Robotique\Compet'\Projet-Compet.nxc"
8	173	804		jmp __NXC_Label_662
8	172	806	#line 172 "D:\Labo - Robotique\Compet'\Projet-Compet.nxc"
8	174	806	#line 174 "D:\Labo - Robotique\Compet'\Projet-Compet.nxc"
8	175	806	#line 175 "D:\Labo - Robotique\Compet'\Projet-Compet.nxc"
8	175	806	#line 175 "D:\Labo - Robotique\Compet'\Projet-Compet.nxc"
8	176	806		jmp __NXC_Label_662
8	175	808	#line 175 "D:\Labo - Robotique\Compet'\Projet-Compet.nxc"
8	175	808	#line 175 "D:\Labo - Robotique\Compet'\Projet-Compet.nxc"
8	176	808		mov __signed_stack_001canape, __canape_7qG2_count_7qG2_000
8	175	810	#line 175 "D:\Labo - Robotique\Compet'\Projet-Compet.nxc"
8	176	810	#line 176 "D:\Labo - Robotique\Compet'\Projet-Compet.nxc"
8	177	810		set __D0canape, 3
8	176	813	#line 176 "D:\Labo - Robotique\Compet'\Projet-Compet.nxc"
8	177	813		cmp 4, __zfcanape, __signed_stack_001canape, __D0canape
8	176	817	#line 176 "D:\Labo - Robotique\Compet'\Projet-Compet.nxc"
8	177	817		mov __D0canape, __zfcanape
8	176	820	#line 176 "D:\Labo - Robotique\Compet'\Projet-Compet.nxc"
8	177	820		brtst 4, __NXC_Label_703, __zfcanape
8	177	823	#line 177 "D:\Labo - Robotique\Compet'\Projet-Compet.nxc"
8	178	823		jmp __NXC_Label_626
8	177	825	#line 177 "D:\Labo - Robotique\Compet'\Projet-Compet.nxc"
8	178	825	#line 178 "D:\Labo - Robotique\Compet'\Projet-Compet.nxc"
8	180	825	#line 180 "D:\Labo - Robotique\Compet'\Projet-Compet.nxc"
8	181	825		jmp __NXC_Label_625
8	180	827	#line 180 "D:\Labo - Robotique\Compet'\Projet-Compet.nxc"
8	180	827	#line 180 "D:\Labo - Robotique\Compet'\Projet-Compet.nxc"
8	181	827		subret __canape_return
9	182	0	#line 182 "D:\Labo - Robotique\Compet'\Projet-Compet.nxc"
9	183	0		set __SetSensorType_7qG2_port_7qG2_000_inline_locaux, 0
9	182	3	#line 182 "D:\Labo - Robotique\Compet'\Projet-Compet.nxc"
9	182	3	#line 182 "D:\Labo - Robotique\Compet'\Projet-Compet.nxc"
9	183	3		set __SetSensorType_7qG2_type_7qG2_000_inline_locaux, 13
9	182	6	#line 182 "D:\Labo - Robotique\Compet'\Projet-Compet.nxc"
9	3663	6	#line 3663 "NXCDefs.h"
9	3664	6		setin __SetSensorType_7qG2_type_7qG2_000_inline_locaux, __SetSensorType_7qG2_port_7qG2_000_inline_locaux, 0
9	3663	10	#line 3663 "NXCDefs.h"
9	183	10	#line 183 "D:\Labo - Robotique\Compet'\Projet-Compet.nxc"
9	183	10	#line 183 "D:\Labo - Robotique\Compet'\Projet-Compet.nxc"
9	184	10		set __SetSensorType_7qG2_port_7qG2_000_inline_locaux, 1
9	183	13	#line 183 "D:\Labo - Robotique\Compet'\Projet-Compet.nxc"
9	183	13	#line 183 "D:\Labo - Robotique\Compet'\Projet-Compet.nxc"
9	184	13		set __SetSensorType_7qG2_type_7qG2_000_inline_locaux, 1
9	183	16	#line 183 "D:\Labo - Robotique\Compet'\Projet-Compet.nxc"
9	3663	16	#line 3663 "NXCDefs.h"
9	3664	16		setin __SetSensorType_7qG2_type_7qG2_000_inline_locaux, __SetSensorType_7qG2_port_7qG2_000_inline_locaux, 0
9	3663	20	#line 3663 "NXCDefs.h"
9	184	20	#line 184 "D:\Labo - Robotique\Compet'\Projet-Compet.nxc"
9	184	20	#line 184 "D:\Labo - Robotique\Compet'\Projet-Compet.nxc"
9	184	20	#line 184 "D:\Labo - Robotique\Compet'\Projet-Compet.nxc"
9	3768	20	#line 3768 "NXCDefs.h"
9	3769	20		mov __SetSensorLowspeed_7qG2_port_7qG2_000_inline_SetSensorUltrasonic_inline_locaux, __constVal2
9	3768	22	#line 3768 "NXCDefs.h"
9	3768	22	#line 3768 "NXCDefs.h"
9	3769	22		mov __SetSensorLowspeed_7qG2_bIsPowered_7qG2_000_inline_SetSensorUltrasonic_inline_locaux, __constVal1
9	3758	24	#line 3758 "NXCDefs.h"
9	3759	24		mov __SetSensorType_7qG2_port_7qG2_000_inline_SetSensorLowspeed_inline_SetSensorUltrasonic_inline_locaux, __SetSensorLowspeed_7qG2_port_7qG2_000_inline_SetSensorUltrasonic_inline_locaux
9	3758	26	#line 3758 "NXCDefs.h"
9	3758	26	#line 3758 "NXCDefs.h"
9	3759	26		mov __DU0SetSensorLowspeed_inline_SetSensorUltrasonic, __SetSensorLowspeed_7qG2_bIsPowered_7qG2_000_inline_SetSensorUltrasonic_inline_locaux
9	3758	28	#line 3758 "NXCDefs.h"
9	3759	28		tst 5, __zfSetSensorLowspeed_inline_SetSensorUltrasonic, __DU0SetSensorLowspeed_inline_SetSensorUltrasonic
9	3758	31	#line 3758 "NXCDefs.h"
9	3759	31		brtst 4, __001__003__NXC_Label_36, __zfSetSensorLowspeed_inline_SetSensorUltrasonic
9	3758	34	#line 3758 "NXCDefs.h"
9	3759	34		set __D0SetSensorLowspeed_inline_SetSensorUltrasonic, 11
9	3758	37	#line 3758 "NXCDefs.h"
9	3759	37		jmp __001__003__NXC_Label_37
9	3758	39	#line 3758 "NXCDefs.h"
9	3759	39		set __D0SetSensorLowspeed_inline_SetSensorUltrasonic, 10
9	3758	42	#line 3758 "NXCDefs.h"
9	3759	42		mov __SetSensorType_7qG2_type_7qG2_000_inline_SetSensorLowspeed_inline_SetSensorUltrasonic_inline_locaux, __D0SetSensorLowspeed_inline_SetSensorUltrasonic
9	3663	44	#line 3663 "NXCDefs.h"
9	3664	44		setin __SetSensorType_7qG2_type_7qG2_000_inline_SetSensorLowspeed_inline_SetSensorUltrasonic_inline_locaux, __SetSensorType_7qG2_port_7qG2_000_inline_SetSensorLowspeed_inline_SetSensorUltrasonic_inline_locaux, 0
9	3663	48	#line 3663 "NXCDefs.h"
9	3759	48	#line 3759 "NXCDefs.h"
9	3759	48	#line 3759 "NXCDefs.h"
9	3760	48		mov __SetSensorMode_7qG2_port_7qG2_000_inline_SetSensorLowspeed_inline_SetSensorUltrasonic_inline_locaux, __SetSensorLowspeed_7qG2_port_7qG2_000_inline_SetSensorUltrasonic_inline_locaux
9	3759	50	#line 3759 "NXCDefs.h"
9	3759	50	#line 3759 "NXCDefs.h"
9	3760	50		set __SetSensorMode_7qG2_mode_7qG2_000_inline_SetSensorLowspeed_inline_SetSensorUltrasonic_inline_locaux, 0
9	3759	53	#line 3759 "NXCDefs.h"
9	3676	53	#line 3676 "NXCDefs.h"
9	3677	53		setin __SetSensorMode_7qG2_mode_7qG2_000_inline_SetSensorLowspeed_inline_SetSensorUltrasonic_inline_locaux, __SetSensorMode_7qG2_port_7qG2_000_inline_SetSensorLowspeed_inline_SetSensorUltrasonic_inline_locaux, 1
9	3676	57	#line 3676 "NXCDefs.h"
9	3760	57	#line 3760 "NXCDefs.h"
9	3760	57	#line 3760 "NXCDefs.h"
9	3761	57		mov __ResetSensor_7qG2_port_7qG2_000_inline_SetSensorLowspeed_inline_SetSensorUltrasonic_inline_locaux, __SetSensorLowspeed_7qG2_port_7qG2_000_inline_SetSensorUltrasonic_inline_locaux
9	3760	59	#line 3760 "NXCDefs.h"
9	3694	59	#line 3694 "NXCDefs.h"
9	3695	59	#pragma macro 4
9	3695	59		acquire __ResetSensorMutex
9	3695	60		mov __ResetSensorPort, __ResetSensor_7qG2_port_7qG2_000_inline_SetSensorLowspeed_inline_SetSensorUltrasonic_inline_locaux
9	3695	62		subcall __ResetSensorSubroutine, ____ResetSensorSubroutine_return
9	3695	65		release __ResetSensorMutex
9	6273	66	#line 6273 "NXCDefs.h"
9	3694	66	#line 3694 "NXCDefs.h"
9	3761	66	#line 3761 "NXCDefs.h"
9	3768	66	#line 3768 "NXCDefs.h"
9	185	66	#line 185 "D:\Labo - Robotique\Compet'\Projet-Compet.nxc"
9	185	66	#line 185 "D:\Labo - Robotique\Compet'\Projet-Compet.nxc"
9	186	66		set __locaux_7qG2_count_7qG2_000, 6
9	185	69	#line 185 "D:\Labo - Robotique\Compet'\Projet-Compet.nxc"
9	186	69	#line 186 "D:\Labo - Robotique\Compet'\Projet-Compet.nxc"
9	186	69	#line 186 "D:\Labo - Robotique\Compet'\Projet-Compet.nxc"
9	187	69	#line 187 "D:\Labo - Robotique\Compet'\Projet-Compet.nxc"
9	187	69	#line 187 "D:\Labo - Robotique\Compet'\Projet-Compet.nxc"
9	188	69	#line 188 "D:\Labo - Robotique\Compet'\Projet-Compet.nxc"
9	188	69	#line 188 "D:\Labo - Robotique\Compet'\Projet-Compet.nxc"
9	189	69	#line 189 "D:\Labo - Robotique\Compet'\Projet-Compet.nxc"
9	189	69	#line 189 "D:\Labo - Robotique\Compet'\Projet-Compet.nxc"
9	191	69	#line 191 "D:\Labo - Robotique\Compet'\Projet-Compet.nxc"
9	191	69	#line 191 "D:\Labo - Robotique\Compet'\Projet-Compet.nxc"
9	192	69	#line 192 "D:\Labo - Robotique\Compet'\Projet-Compet.nxc"
9	193	69		set __D0locaux, 1
9	193	72	#line 193 "D:\Labo - Robotique\Compet'\Projet-Compet.nxc"
9	194	72		tst 5, __zflocaux, __D0locaux
9	193	75	#line 193 "D:\Labo - Robotique\Compet'\Projet-Compet.nxc"
9	194	75		brtst 4, __NXC_Label_727, __zflocaux
9	193	78	#line 193 "D:\Labo - Robotique\Compet'\Projet-Compet.nxc"
9	194	78		set __SetSensorColorFull_7qG2_port_7qG2_000_inline_locaux, 0
9	193	81	#line 193 "D:\Labo - Robotique\Compet'\Projet-Compet.nxc"
9	3802	81	#line 3802 "NXCDefs.h"
9	3803	81	#pragma macro 6
9	3803	81		setin __constVal13, __SetSensorColorFull_7qG2_port_7qG2_000_inline_locaux, 0
9	3803	85		setin __constVal0, __SetSensorColorFull_7qG2_port_7qG2_000_inline_locaux, 1
9	3803	89		acquire __ResetSensorMutex
9	3803	90		mov __ResetSensorPort, __SetSensorColorFull_7qG2_port_7qG2_000_inline_locaux
9	3803	92		subcall __ResetSensorSubroutine, ____ResetSensorSubroutine_return
9	3803	95		release __ResetSensorMutex
9	6378	96	#line 6378 "NXCDefs.h"
9	3802	96	#line 3802 "NXCDefs.h"
9	194	96	#line 194 "D:\Labo - Robotique\Compet'\Projet-Compet.nxc"
9	196	96	#line 196 "D:\Labo - Robotique\Compet'\Projet-Compet.nxc"
9	197	96		set __locaux_7qG2_csr_7qG2_001.Port, 0
9	196	99	#line 196 "D:\Labo - Robotique\Compet'\Projet-Compet.nxc"
9	196	99	#line 196 "D:\Labo - Robotique\Compet'\Projet-Compet.nxc"
9	197	99	#line 197 "D:\Labo - Robotique\Compet'\Projet-Compet.nxc"
9	198	99	#pragma macro 4
9	198	99	#line 198 "D:\Labo - Robotique\Compet'\Projet-Compet.nxc"
9	198	99		syscall 34, __locaux_7qG2_csr_7qG2_001
9	196	102	#line 196 "D:\Labo - Robotique\Compet'\Projet-Compet.nxc"
9	196	102	#line 196 "D:\Labo - Robotique\Compet'\Projet-Compet.nxc"
9	196	102	#line 196 "D:\Labo - Robotique\Compet'\Projet-Compet.nxc"
9	196	102	#line 196 "D:\Labo - Robotique\Compet'\Projet-Compet.nxc"
9	198	102	#line 198 "D:\Labo - Robotique\Compet'\Projet-Compet.nxc"
9	197	102	#line 197 "D:\Labo - Robotique\Compet'\Projet-Compet.nxc"
9	198	102	#line 198 "D:\Labo - Robotique\Compet'\Projet-Compet.nxc"
9	199	102		mov __signed_stack_001locaux, __locaux_7qG2_csr_7qG2_001.ColorValue
9	198	105	#line 198 "D:\Labo - Robotique\Compet'\Projet-Compet.nxc"
9	198	105	#line 198 "D:\Labo - Robotique\Compet'\Projet-Compet.nxc"
9	199	105		set __D0locaux, 2
9	198	108	#line 198 "D:\Labo - Robotique\Compet'\Projet-Compet.nxc"
9	199	108		cmp 4, __zflocaux, __signed_stack_001locaux, __D0locaux
9	198	112	#line 198 "D:\Labo - Robotique\Compet'\Projet-Compet.nxc"
9	199	112		mov __D0locaux, __zflocaux
9	198	115	#line 198 "D:\Labo - Robotique\Compet'\Projet-Compet.nxc"
9	199	115		brtst 4, __NXC_Label_735, __zflocaux
9	198	118	#line 198 "D:\Labo - Robotique\Compet'\Projet-Compet.nxc"
9	199	118		mov __signed_stack_001locaux, __D0locaux
9	198	120	#line 198 "D:\Labo - Robotique\Compet'\Projet-Compet.nxc"
9	199	120		mov __signed_stack_002locaux, __locaux_7qG2_count_7qG2_000
9	198	122	#line 198 "D:\Labo - Robotique\Compet'\Projet-Compet.nxc"
9	198	122	#line 198 "D:\Labo - Robotique\Compet'\Projet-Compet.nxc"
9	199	122		set __D0locaux, 6
9	198	125	#line 198 "D:\Labo - Robotique\Compet'\Projet-Compet.nxc"
9	199	125		cmp 4, __zflocaux, __signed_stack_002locaux, __D0locaux
9	198	129	#line 198 "D:\Labo - Robotique\Compet'\Projet-Compet.nxc"
9	199	129	#line 199 "D:\Labo - Robotique\Compet'\Projet-Compet.nxc"
9	200	129		and __D0locaux, __signed_stack_001locaux, __zflocaux
9	200	133	#line 200 "D:\Labo - Robotique\Compet'\Projet-Compet.nxc"
9	201	133		tst 5, __zflocaux, __D0locaux
9	200	136	#line 200 "D:\Labo - Robotique\Compet'\Projet-Compet.nxc"
9	201	136		brtst 4, __NXC_Label_740, __zflocaux
9	201	139	#line 201 "D:\Labo - Robotique\Compet'\Projet-Compet.nxc"
9	202	139	#pragma macro 7
9	202	139		setout __OUT_AB, 2, __constVal0, 1, __constVal3, 8, __constVal0, 6, __constVal32, 7, __constVal0, 5, __constVal0, 10, __constVal96, 11, __constVal32, 12, __constVal32, 0, __constVal63
9	6440	162	#line 6440 "D:\Labo - Robotique\Compet'\Projet-Compet.nxc"
9	201	162	#line 201 "D:\Labo - Robotique\Compet'\Projet-Compet.nxc"
9	201	162	#line 201 "D:\Labo - Robotique\Compet'\Projet-Compet.nxc"
9	202	162		set __D0locaux, 50
9	202	165	#line 202 "D:\Labo - Robotique\Compet'\Projet-Compet.nxc"
9	203	165	#pragma macro 10
9	203	165		acquire __OnRevMutex
9	203	166		neg __OnRev_Tmp, __D0locaux
9	203	169		setout __constVal1, 2, __OnRev_Tmp, 1, __constVal3, 8, __constVal0, 6, __constVal32, 7, __constVal0, 5, __constVal0, 10, __constVal96, 11, __constVal32, 12, __constVal32, 0, __constVal63
9	203	192		release __OnRevMutex
9	6447	193	#line 6447 "D:\Labo - Robotique\Compet'\Projet-Compet.nxc"
9	202	193	#line 202 "D:\Labo - Robotique\Compet'\Projet-Compet.nxc"
9	202	193	#line 202 "D:\Labo - Robotique\Compet'\Projet-Compet.nxc"
9	203	193		set __D0locaux, 57
9	203	196	#line 203 "D:\Labo - Robotique\Compet'\Projet-Compet.nxc"
9	204	196	#pragma macro 10
9	204	196		acquire __OnRevMutex
9	204	197		neg __OnRev_Tmp, __D0locaux
9	204	200		setout __constVal0, 2, __OnRev_Tmp, 1, __constVal3, 8, __constVal0, 6, __constVal32, 7, __constVal0, 5, __constVal0, 10, __constVal96, 11, __constVal32, 12, __constVal32, 0, __constVal63
9	204	223		release __OnRevMutex
9	6454	224	#line 6454 "D:\Labo - Robotique\Compet'\Projet-Compet.nxc"
9	203	224	#line 203 "D:\Labo - Robotique\Compet'\Projet-Compet.nxc"
9	203	224	#line 203 "D:\Labo - Robotique\Compet'\Projet-Compet.nxc"
9	204	224		set __Wait_7qG2_ms_7qG2_000_inline_locaux, 1500
9	203	227	#line 203 "D:\Labo - Robotique\Compet'\Projet-Compet.nxc"
9	7921	227	#line 7921 "NXCDefs.h"
9	7922	227		wait2 NA, __Wait_7qG2_ms_7qG2_000_inline_locaux
9	7921	230	#line 7921 "NXCDefs.h"
9	204	230	#line 204 "D:\Labo - Robotique\Compet'\Projet-Compet.nxc"
9	205	230	#line 205 "D:\Labo - Robotique\Compet'\Projet-Compet.nxc"
9	206	230	#pragma macro 7
9	206	230		setout __OUT_AB, 2, __constVal0, 1, __constVal3, 8, __constVal0, 6, __constVal32, 7, __constVal0, 5, __constVal0, 10, __constVal96, 11, __constVal32, 12, __constVal32, 0, __constVal63
9	6471	253	#line 6471 "D:\Labo - Robotique\Compet'\Projet-Compet.nxc"
9	205	253	#line 205 "D:\Labo - Robotique\Compet'\Projet-Compet.nxc"
9	205	253	#line 205 "D:\Labo - Robotique\Compet'\Projet-Compet.nxc"
9	206	253		set __Wait_7qG2_ms_7qG2_000_inline_locaux, 100
9	205	256	#line 205 "D:\Labo - Robotique\Compet'\Projet-Compet.nxc"
9	7921	256	#line 7921 "NXCDefs.h"
9	7922	256		wait2 NA, __Wait_7qG2_ms_7qG2_000_inline_locaux
9	7921	259	#line 7921 "NXCDefs.h"
9	206	259	#line 206 "D:\Labo - Robotique\Compet'\Projet-Compet.nxc"
9	206	259	#line 206 "D:\Labo - Robotique\Compet'\Projet-Compet.nxc"
9	207	259		set __D0locaux, 57
9	207	262	#line 207 "D:\Labo - Robotique\Compet'\Projet-Compet.nxc"
9	208	262	#pragma macro 7
9	208	262		setout __constVal0, 2, __D0locaux, 1, __constVal3, 8, __constVal0, 6, __constVal32, 7, __constVal0, 5, __constVal0, 10, __constVal96, 11, __constVal32, 12, __constVal32, 0, __constVal63
9	6488	285	#line 6488 "D:\Labo - Robotique\Compet'\Projet-Compet.nxc"
9	207	285	#line 207 "D:\Labo - Robotique\Compet'\Projet-Compet.nxc"
9	207	285	#line 207 "D:\Labo - Robotique\Compet'\Projet-Compet.nxc"
9	208	285		set __D0locaux, 50
9	208	288	#line 208 "D:\Labo - Robotique\Compet'\Projet-Compet.nxc"
9	209	288	#pragma macro 10
9	209	288		acquire __OnRevMutex
9	209	289		neg __OnRev_Tmp, __D0locaux
9	209	292		setout __constVal1, 2, __OnRev_Tmp, 1, __constVal3, 8, __constVal0, 6, __constVal32, 7, __constVal0, 5, __constVal0, 10, __constVal96, 11, __constVal32, 12, __constVal32, 0, __constVal63
9	209	315		release __OnRevMutex
9	6495	316	#line 6495 "D:\Labo - Robotique\Compet'\Projet-Compet.nxc"
9	208	316	#line 208 "D:\Labo - Robotique\Compet'\Projet-Compet.nxc"
9	208	316	#line 208 "D:\Labo - Robotique\Compet'\Projet-Compet.nxc"
9	209	316		set __Wait_7qG2_ms_7qG2_000_inline_locaux, 1500
9	208	319	#line 208 "D:\Labo - Robotique\Compet'\Projet-Compet.nxc"
9	7921	319	#line 7921 "NXCDefs.h"
9	7922	319		wait2 NA, __Wait_7qG2_ms_7qG2_000_inline_locaux
9	7921	322	#line 7921 "NXCDefs.h"
9	209	322	#line 209 "D:\Labo - Robotique\Compet'\Projet-Compet.nxc"
9	210	322	#line 210 "D:\Labo - Robotique\Compet'\Projet-Compet.nxc"
9	211	322		add __locaux_7qG2_count_7qG2_000, __locaux_7qG2_count_7qG2_000, __constVal1
9	210	326	#line 210 "D:\Labo - Robotique\Compet'\Projet-Compet.nxc"
9	211	326	#line 211 "D:\Labo - Robotique\Compet'\Projet-Compet.nxc"
9	211	326	#line 211 "D:\Labo - Robotique\Compet'\Projet-Compet.nxc"
9	212	326	#pragma macro 26
9	212	326		acquire __RLSBmutex2
9	212	327		mov __RLSReadBuf2, __RLSBbufLSWrite1
9	212	329		set __RLSBytesCount2, 1
9	212	332		wait2 NA, __constVal15
9	212	335		subcall __ReadLSBytes2, ____ReadLSBytes2_return
9	212	338		index __D0locaux, __RLSReadBuf2, 65535
9	212	342		release __RLSBmutex2
9	6513	343	#line 6513 "D:\Labo - Robotique\Compet'\Projet-Compet.nxc"
9	211	343	#line 211 "D:\Labo - Robotique\Compet'\Projet-Compet.nxc"
9	212	343		mov __signed_stack_001locaux, __D0locaux
9	212	345	#line 212 "D:\Labo - Robotique\Compet'\Projet-Compet.nxc"
9	213	345		set __D0locaux, 25
9	212	348	#line 212 "D:\Labo - Robotique\Compet'\Projet-Compet.nxc"
9	213	348		cmp 0, __zflocaux, __signed_stack_001locaux, __D0locaux
9	212	352	#line 212 "D:\Labo - Robotique\Compet'\Projet-Compet.nxc"
9	213	352		mov __D0locaux, __zflocaux
9	213	355	#line 213 "D:\Labo - Robotique\Compet'\Projet-Compet.nxc"
9	214	355		brtst 4, __NXC_Label_757, __zflocaux
9	213	358	#line 213 "D:\Labo - Robotique\Compet'\Projet-Compet.nxc"
9	214	358		set __D0locaux, 57
9	214	361	#line 214 "D:\Labo - Robotique\Compet'\Projet-Compet.nxc"
9	215	361	#pragma macro 7
9	215	361		setout __constVal0, 2, __D0locaux, 1, __constVal3, 8, __constVal0, 6, __constVal32, 7, __constVal0, 5, __constVal0, 10, __constVal96, 11, __constVal32, 12, __constVal32, 0, __constVal63
9	6531	384	#line 6531 "D:\Labo - Robotique\Compet'\Projet-Compet.nxc"
9	214	384	#line 214 "D:\Labo - Robotique\Compet'\Projet-Compet.nxc"
9	214	384	#line 214 "D:\Labo - Robotique\Compet'\Projet-Compet.nxc"
9	215	384		set __D0locaux, 50
9	215	387	#line 215 "D:\Labo - Robotique\Compet'\Projet-Compet.nxc"
9	216	387	#pragma macro 10
9	216	387		acquire __OnRevMutex
9	216	388		neg __OnRev_Tmp, __D0locaux
9	216	391		setout __constVal1, 2, __OnRev_Tmp, 1, __constVal3, 8, __constVal0, 6, __constVal32, 7, __constVal0, 5, __constVal0, 10, __constVal96, 11, __constVal32, 12, __constVal32, 0, __constVal63
9	216	414		release __OnRevMutex
9	6538	415	#line 6538 "D:\Labo - Robotique\Compet'\Projet-Compet.nxc"
9	215	415	#line 215 "D:\Labo - Robotique\Compet'\Projet-Compet.nxc"
9	215	415	#line 215 "D:\Labo - Robotique\Compet'\Projet-Compet.nxc"
9	216	415		set __Wait_7qG2_ms_7qG2_000_inline_locaux, 1500
9	215	418	#line 215 "D:\Labo - Robotique\Compet'\Projet-Compet.nxc"
9	7921	418	#line 7921 "NXCDefs.h"
9	7922	418		wait2 NA, __Wait_7qG2_ms_7qG2_000_inline_locaux
9	7921	421	#line 7921 "NXCDefs.h"
9	216	421	#line 216 "D:\Labo - Robotique\Compet'\Projet-Compet.nxc"
9	218	421	#line 218 "D:\Labo - Robotique\Compet'\Projet-Compet.nxc"
9	218	421	#line 218 "D:\Labo - Robotique\Compet'\Projet-Compet.nxc"
9	219	421	#pragma macro 26
9	219	421		acquire __RLSBmutex3
9	219	422		mov __RLSReadBuf3, __RLSBbufLSWrite1
9	219	424		set __RLSBytesCount3, 1
9	219	427		wait2 NA, __constVal15
9	219	430		subcall __ReadLSBytes3, ____ReadLSBytes3_return
9	219	433		index __D0locaux, __RLSReadBuf3, 65535
9	219	437		release __RLSBmutex3
9	6553	438	#line 6553 "D:\Labo - Robotique\Compet'\Projet-Compet.nxc"
9	218	438	#line 218 "D:\Labo - Robotique\Compet'\Projet-Compet.nxc"
9	219	438		mov __signed_stack_001locaux, __D0locaux
9	219	440	#line 219 "D:\Labo - Robotique\Compet'\Projet-Compet.nxc"
9	220	440		set __D0locaux, 20
9	219	443	#line 219 "D:\Labo - Robotique\Compet'\Projet-Compet.nxc"
9	220	443		cmp 0, __zflocaux, __signed_stack_001locaux, __D0locaux
9	219	447	#line 219 "D:\Labo - Robotique\Compet'\Projet-Compet.nxc"
9	220	447		mov __D0locaux, __zflocaux
9	220	450	#line 220 "D:\Labo - Robotique\Compet'\Projet-Compet.nxc"
9	221	450		brtst 4, __NXC_Label_766, __zflocaux
9	220	453	#line 220 "D:\Labo - Robotique\Compet'\Projet-Compet.nxc"
9	221	453		set __D0locaux, 30
9	221	456	#line 221 "D:\Labo - Robotique\Compet'\Projet-Compet.nxc"
9	222	456	#pragma macro 7
9	222	456		setout __constVal1, 2, __D0locaux, 1, __constVal3, 8, __constVal0, 6, __constVal32, 7, __constVal0, 5, __constVal0, 10, __constVal96, 11, __constVal32, 12, __constVal32, 0, __constVal63
9	6571	479	#line 6571 "D:\Labo - Robotique\Compet'\Projet-Compet.nxc"
9	221	479	#line 221 "D:\Labo - Robotique\Compet'\Projet-Compet.nxc"
9	221	479	#line 221 "D:\Labo - Robotique\Compet'\Projet-Compet.nxc"
9	222	479		set __D0locaux, 30
9	222	482	#line 222 "D:\Labo - Robotique\Compet'\Projet-Compet.nxc"
9	223	482	#pragma macro 10
9	223	482		acquire __OnRevMutex
9	223	483		neg __OnRev_Tmp, __D0locaux
9	223	486		setout __constVal0, 2, __OnRev_Tmp, 1, __constVal3, 8, __constVal0, 6, __constVal32, 7, __constVal0, 5, __constVal0, 10, __constVal96, 11, __constVal32, 12, __constVal32, 0, __constVal63
9	223	509		release __OnRevMutex
9	6578	510	#line 6578 "D:\Labo - Robotique\Compet'\Projet-Compet.nxc"
9	222	510	#line 222 "D:\Labo - Robotique\Compet'\Projet-Compet.nxc"
9	222	510	#line 222 "D:\Labo - Robotique\Compet'\Projet-Compet.nxc"
9	223	510		set __Wait_7qG2_ms_7qG2_000_inline_locaux, 20
9	222	513	#line 222 "D:\Labo - Robotique\Compet'\Projet-Compet.nxc"
9	7921	513	#line 7921 "NXCDefs.h"
9	7922	513		wait2 NA, __Wait_7qG2_ms_7qG2_000_inline_locaux
9	7921	516	#line 7921 "NXCDefs.h"
9	223	516	#line 223 "D:\Labo - Robotique\Compet'\Projet-Compet.nxc"
9	224	516	#line 224 "D:\Labo - Robotique\Compet'\Projet-Compet.nxc"
9	225	516		jmp __NXC_Label_773
9	224	518	#line 224 "D:\Labo - Robotique\Compet'\Projet-Compet.nxc"
9	225	518	#pragma macro 26
9	225	518		acquire __RLSBmutex3
9	225	519		mov __RLSReadBuf3, __RLSBbufLSWrite1
9	225	521		set __RLSBytesCount3, 1
9	225	524		wait2 NA, __constVal15
9	225	527		subcall __ReadLSBytes3, ____ReadLSBytes3_return
9	225	530		index __D0locaux, __RLSReadBuf3, 65535
9	225	534		release __RLSBmutex3
9	6594	535	#line 6594 "D:\Labo - Robotique\Compet'\Projet-Compet.nxc"
9	224	535	#line 224 "D:\Labo - Robotique\Compet'\Projet-Compet.nxc"
9	225	535		mov __signed_stack_001locaux, __D0locaux
9	225	537	#line 225 "D:\Labo - Robotique\Compet'\Projet-Compet.nxc"
9	226	537		set __D0locaux, 40
9	225	540	#line 225 "D:\Labo - Robotique\Compet'\Projet-Compet.nxc"
9	226	540		cmp 1, __zflocaux, __signed_stack_001locaux, __D0locaux
9	225	544	#line 225 "D:\Labo - Robotique\Compet'\Projet-Compet.nxc"
9	226	544		mov __D0locaux, __zflocaux
9	226	547	#line 226 "D:\Labo - Robotique\Compet'\Projet-Compet.nxc"
9	227	547		brtst 4, __NXC_Label_776, __zflocaux
9	226	550	#line 226 "D:\Labo - Robotique\Compet'\Projet-Compet.nxc"
9	227	550		set __D0locaux, 50
9	227	553	#line 227 "D:\Labo - Robotique\Compet'\Projet-Compet.nxc"
9	228	553	#pragma macro 7
9	228	553		setout __constVal0, 2, __D0locaux, 1, __constVal3, 8, __constVal0, 6, __constVal32, 7, __constVal0, 5, __constVal0, 10, __constVal96, 11, __constVal32, 12, __constVal32, 0, __constVal63
9	6612	576	#line 6612 "D:\Labo - Robotique\Compet'\Projet-Compet.nxc"
9	227	576	#line 227 "D:\Labo - Robotique\Compet'\Projet-Compet.nxc"
9	227	576	#line 227 "D:\Labo - Robotique\Compet'\Projet-Compet.nxc"
9	228	576		set __D0locaux, 50
9	228	579	#line 228 "D:\Labo - Robotique\Compet'\Projet-Compet.nxc"
9	229	579	#pragma macro 10
9	229	579		acquire __OnRevMutex
9	229	580		neg __OnRev_Tmp, __D0locaux
9	229	583		setout __constVal1, 2, __OnRev_Tmp, 1, __constVal3, 8, __constVal0, 6, __constVal32, 7, __constVal0, 5, __constVal0, 10, __constVal96, 11, __constVal32, 12, __constVal32, 0, __constVal63
9	229	606		release __OnRevMutex
9	6619	607	#line 6619 "D:\Labo - Robotique\Compet'\Projet-Compet.nxc"
9	228	607	#line 228 "D:\Labo - Robotique\Compet'\Projet-Compet.nxc"
9	228	607	#line 228 "D:\Labo - Robotique\Compet'\Projet-Compet.nxc"
9	229	607		set __Wait_7qG2_ms_7qG2_000_inline_locaux, 20
9	228	610	#line 228 "D:\Labo - Robotique\Compet'\Projet-Compet.nxc"
9	7921	610	#line 7921 "NXCDefs.h"
9	7922	610		wait2 NA, __Wait_7qG2_ms_7qG2_000_inline_locaux
9	7921	613	#line 7921 "NXCDefs.h"
9	229	613	#line 229 "D:\Labo - Robotique\Compet'\Projet-Compet.nxc"
9	232	613	#line 232 "D:\Labo - Robotique\Compet'\Projet-Compet.nxc"
9	233	613		jmp __NXC_Label_783
9	232	615	#line 232 "D:\Labo - Robotique\Compet'\Projet-Compet.nxc"
9	233	615		set __D0locaux, 57
9	233	618	#line 233 "D:\Labo - Robotique\Compet'\Projet-Compet.nxc"
9	234	618	#pragma macro 7
9	234	618		setout __constVal0, 2, __D0locaux, 1, __constVal3, 8, __constVal0, 6, __constVal32, 7, __constVal0, 5, __constVal0, 10, __constVal96, 11, __constVal32, 12, __constVal32, 0, __constVal63
9	6639	641	#line 6639 "D:\Labo - Robotique\Compet'\Projet-Compet.nxc"
9	233	641	#line 233 "D:\Labo - Robotique\Compet'\Projet-Compet.nxc"
9	233	641	#line 233 "D:\Labo - Robotique\Compet'\Projet-Compet.nxc"
9	234	641		set __D0locaux, 50
9	234	644	#line 234 "D:\Labo - Robotique\Compet'\Projet-Compet.nxc"
9	235	644	#pragma macro 7
9	235	644		setout __constVal1, 2, __D0locaux, 1, __constVal3, 8, __constVal0, 6, __constVal32, 7, __constVal0, 5, __constVal0, 10, __constVal96, 11, __constVal32, 12, __constVal32, 0, __constVal63
9	6646	667	#line 6646 "D:\Labo - Robotique\Compet'\Projet-Compet.nxc"
9	234	667	#line 234 "D:\Labo - Robotique\Compet'\Projet-Compet.nxc"
9	234	667	#line 234 "D:\Labo - Robotique\Compet'\Projet-Compet.nxc"
9	235	667		set __Wait_7qG2_ms_7qG2_000_inline_locaux, 20
9	234	670	#line 234 "D:\Labo - Robotique\Compet'\Projet-Compet.nxc"
9	7921	670	#line 7921 "NXCDefs.h"
9	7922	670		wait2 NA, __Wait_7qG2_ms_7qG2_000_inline_locaux
9	7921	673	#line 7921 "NXCDefs.h"
9	235	673	#line 235 "D:\Labo - Robotique\Compet'\Projet-Compet.nxc"
9	237	673	#line 237 "D:\Labo - Robotique\Compet'\Projet-Compet.nxc"
9	237	673	#line 237 "D:\Labo - Robotique\Compet'\Projet-Compet.nxc"
9	239	673	#line 239 "D:\Labo - Robotique\Compet'\Projet-Compet.nxc"
9	240	673		jmp __NXC_Label_726
9	239	675	#line 239 "D:\Labo - Robotique\Compet'\Projet-Compet.nxc"
9	239	675	#line 239 "D:\Labo - Robotique\Compet'\Projet-Compet.nxc"
9	240	675		subret __locaux_return
10	241	0	#line 241 "D:\Labo - Robotique\Compet'\Projet-Compet.nxc"
10	242	0		set __SetSensorType_7qG2_port_7qG2_000_inline_humeur, 0
10	241	3	#line 241 "D:\Labo - Robotique\Compet'\Projet-Compet.nxc"
10	241	3	#line 241 "D:\Labo - Robotique\Compet'\Projet-Compet.nxc"
10	242	3		set __SetSensorType_7qG2_type_7qG2_000_inline_humeur, 13
10	241	6	#line 241 "D:\Labo - Robotique\Compet'\Projet-Compet.nxc"
10	3663	6	#line 3663 "NXCDefs.h"
10	3664	6		setin __SetSensorType_7qG2_type_7qG2_000_inline_humeur, __SetSensorType_7qG2_port_7qG2_000_inline_humeur, 0
10	3663	10	#line 3663 "NXCDefs.h"
10	242	10	#line 242 "D:\Labo - Robotique\Compet'\Projet-Compet.nxc"
10	242	10	#line 242 "D:\Labo - Robotique\Compet'\Projet-Compet.nxc"
10	243	10		set __SetSensorType_7qG2_port_7qG2_000_inline_humeur, 1
10	242	13	#line 242 "D:\Labo - Robotique\Compet'\Projet-Compet.nxc"
10	242	13	#line 242 "D:\Labo - Robotique\Compet'\Projet-Compet.nxc"
10	243	13		set __SetSensorType_7qG2_type_7qG2_000_inline_humeur, 1
10	242	16	#line 242 "D:\Labo - Robotique\Compet'\Projet-Compet.nxc"
10	3663	16	#line 3663 "NXCDefs.h"
10	3664	16		setin __SetSensorType_7qG2_type_7qG2_000_inline_humeur, __SetSensorType_7qG2_port_7qG2_000_inline_humeur, 0
10	3663	20	#line 3663 "NXCDefs.h"
10	243	20	#line 243 "D:\Labo - Robotique\Compet'\Projet-Compet.nxc"
10	243	20	#line 243 "D:\Labo - Robotique\Compet'\Projet-Compet.nxc"
10	243	20	#line 243 "D:\Labo - Robotique\Compet'\Projet-Compet.nxc"
10	3768	20	#line 3768 "NXCDefs.h"
10	3769	20		mov __SetSensorLowspeed_7qG2_port_7qG2_000_inline_SetSensorUltrasonic_inline_humeur, __constVal2
10	3768	22	#line 3768 "NXCDefs.h"
10	3768	22	#line 3768 "NXCDefs.h"
10	3769	22		mov __SetSensorLowspeed_7qG2_bIsPowered_7qG2_000_inline_SetSensorUltrasonic_inline_humeur, __constVal1
10	3758	24	#line 3758 "NXCDefs.h"
10	3759	24		mov __SetSensorType_7qG2_port_7qG2_000_inline_SetSensorLowspeed_inline_SetSensorUltrasonic_inline_humeur, __SetSensorLowspeed_7qG2_port_7qG2_000_inline_SetSensorUltrasonic_inline_humeur
10	3758	26	#line 3758 "NXCDefs.h"
10	3758	26	#line 3758 "NXCDefs.h"
10	3759	26		mov __DU0SetSensorLowspeed_inline_SetSensorUltrasonic, __SetSensorLowspeed_7qG2_bIsPowered_7qG2_000_inline_SetSensorUltrasonic_inline_humeur
10	3758	28	#line 3758 "NXCDefs.h"
10	3759	28		tst 5, __zfSetSensorLowspeed_inline_SetSensorUltrasonic, __DU0SetSensorLowspeed_inline_SetSensorUltrasonic
10	3758	31	#line 3758 "NXCDefs.h"
10	3759	31		brtst 4, __001__004__NXC_Label_36, __zfSetSensorLowspeed_inline_SetSensorUltrasonic
10	3758	34	#line 3758 "NXCDefs.h"
10	3759	34		set __D0SetSensorLowspeed_inline_SetSensorUltrasonic, 11
10	3758	37	#line 3758 "NXCDefs.h"
10	3759	37		jmp __001__004__NXC_Label_37
10	3758	39	#line 3758 "NXCDefs.h"
10	3759	39		set __D0SetSensorLowspeed_inline_SetSensorUltrasonic, 10
10	3758	42	#line 3758 "NXCDefs.h"
10	3759	42		mov __SetSensorType_7qG2_type_7qG2_000_inline_SetSensorLowspeed_inline_SetSensorUltrasonic_inline_humeur, __D0SetSensorLowspeed_inline_SetSensorUltrasonic
10	3663	44	#line 3663 "NXCDefs.h"
10	3664	44		setin __SetSensorType_7qG2_type_7qG2_000_inline_SetSensorLowspeed_inline_SetSensorUltrasonic_inline_humeur, __SetSensorType_7qG2_port_7qG2_000_inline_SetSensorLowspeed_inline_SetSensorUltrasonic_inline_humeur, 0
10	3663	48	#line 3663 "NXCDefs.h"
10	3759	48	#line 3759 "NXCDefs.h"
10	3759	48	#line 3759 "NXCDefs.h"
10	3760	48		mov __SetSensorMode_7qG2_port_7qG2_000_inline_SetSensorLowspeed_inline_SetSensorUltrasonic_inline_humeur, __SetSensorLowspeed_7qG2_port_7qG2_000_inline_SetSensorUltrasonic_inline_humeur
10	3759	50	#line 3759 "NXCDefs.h"
10	3759	50	#line 3759 "NXCDefs.h"
10	3760	50		set __SetSensorMode_7qG2_mode_7qG2_000_inline_SetSensorLowspeed_inline_SetSensorUltrasonic_inline_humeur, 0
10	3759	53	#line 3759 "NXCDefs.h"
10	3676	53	#line 3676 "NXCDefs.h"
10	3677	53		setin __SetSensorMode_7qG2_mode_7qG2_000_inline_SetSensorLowspeed_inline_SetSensorUltrasonic_inline_humeur, __SetSensorMode_7qG2_port_7qG2_000_inline_SetSensorLowspeed_inline_SetSensorUltrasonic_inline_humeur, 1
10	3676	57	#line 3676 "NXCDefs.h"
10	3760	57	#line 3760 "NXCDefs.h"
10	3760	57	#line 3760 "NXCDefs.h"
10	3761	57		mov __ResetSensor_7qG2_port_7qG2_000_inline_SetSensorLowspeed_inline_SetSensorUltrasonic_inline_humeur, __SetSensorLowspeed_7qG2_port_7qG2_000_inline_SetSensorUltrasonic_inline_humeur
10	3760	59	#line 3760 "NXCDefs.h"
10	3694	59	#line 3694 "NXCDefs.h"
10	3695	59	#pragma macro 4
10	3695	59		acquire __ResetSensorMutex
10	3695	60		mov __ResetSensorPort, __ResetSensor_7qG2_port_7qG2_000_inline_SetSensorLowspeed_inline_SetSensorUltrasonic_inline_humeur
10	3695	62		subcall __ResetSensorSubroutine, ____ResetSensorSubroutine_return
10	3695	65		release __ResetSensorMutex
10	6812	66	#line 6812 "NXCDefs.h"
10	3694	66	#line 3694 "NXCDefs.h"
10	3761	66	#line 3761 "NXCDefs.h"
10	3768	66	#line 3768 "NXCDefs.h"
10	244	66	#line 244 "D:\Labo - Robotique\Compet'\Projet-Compet.nxc"
10	244	66	#line 244 "D:\Labo - Robotique\Compet'\Projet-Compet.nxc"
10	245	66		set __humeur_7qG2_count_7qG2_000, 7
10	244	69	#line 244 "D:\Labo - Robotique\Compet'\Projet-Compet.nxc"
10	244	69	#line 244 "D:\Labo - Robotique\Compet'\Projet-Compet.nxc"
10	244	69	#line 244 "D:\Labo - Robotique\Compet'\Projet-Compet.nxc"
10	246	69	#line 246 "D:\Labo - Robotique\Compet'\Projet-Compet.nxc"
10	247	69		set __humeur_7qG2_i_7qG2_000, 0
10	246	72	#line 246 "D:\Labo - Robotique\Compet'\Projet-Compet.nxc"
10	247	72	#line 247 "D:\Labo - Robotique\Compet'\Projet-Compet.nxc"
10	248	72		set __D0humeur, 1
10	248	75	#line 248 "D:\Labo - Robotique\Compet'\Projet-Compet.nxc"
10	249	75		tst 5, __zfhumeur, __D0humeur
10	248	78	#line 248 "D:\Labo - Robotique\Compet'\Projet-Compet.nxc"
10	249	78		brtst 4, __NXC_Label_807, __zfhumeur
10	248	81	#line 248 "D:\Labo - Robotique\Compet'\Projet-Compet.nxc"
10	249	81		set __SetSensorColorFull_7qG2_port_7qG2_000_inline_humeur, 0
10	248	84	#line 248 "D:\Labo - Robotique\Compet'\Projet-Compet.nxc"
10	3802	84	#line 3802 "NXCDefs.h"
10	3803	84	#pragma macro 6
10	3803	84		setin __constVal13, __SetSensorColorFull_7qG2_port_7qG2_000_inline_humeur, 0
10	3803	88		setin __constVal0, __SetSensorColorFull_7qG2_port_7qG2_000_inline_humeur, 1
10	3803	92		acquire __ResetSensorMutex
10	3803	93		mov __ResetSensorPort, __SetSensorColorFull_7qG2_port_7qG2_000_inline_humeur
10	3803	95		subcall __ResetSensorSubroutine, ____ResetSensorSubroutine_return
10	3803	98		release __ResetSensorMutex
10	6867	99	#line 6867 "NXCDefs.h"
10	3802	99	#line 3802 "NXCDefs.h"
10	249	99	#line 249 "D:\Labo - Robotique\Compet'\Projet-Compet.nxc"
10	251	99	#line 251 "D:\Labo - Robotique\Compet'\Projet-Compet.nxc"
10	252	99		set __humeur_7qG2_csr_7qG2_001.Port, 0
10	251	102	#line 251 "D:\Labo - Robotique\Compet'\Projet-Compet.nxc"
10	251	102	#line 251 "D:\Labo - Robotique\Compet'\Projet-Compet.nxc"
10	252	102	#line 252 "D:\Labo - Robotique\Compet'\Projet-Compet.nxc"
10	253	102	#pragma macro 4
10	253	102	#line 253 "D:\Labo - Robotique\Compet'\Projet-Compet.nxc"
10	253	102		syscall 34, __humeur_7qG2_csr_7qG2_001
10	251	105	#line 251 "D:\Labo - Robotique\Compet'\Projet-Compet.nxc"
10	251	105	#line 251 "D:\Labo - Robotique\Compet'\Projet-Compet.nxc"
10	251	105	#line 251 "D:\Labo - Robotique\Compet'\Projet-Compet.nxc"
10	251	105	#line 251 "D:\Labo - Robotique\Compet'\Projet-Compet.nxc"
10	253	105	#line 253 "D:\Labo - Robotique\Compet'\Projet-Compet.nxc"
10	252	105	#line 252 "D:\Labo - Robotique\Compet'\Projet-Compet.nxc"
10	253	105	#line 253 "D:\Labo - Robotique\Compet'\Projet-Compet.nxc"
10	254	105		set __D0humeur, 53
10	254	108	#line 254 "D:\Labo - Robotique\Compet'\Projet-Compet.nxc"
10	255	108	#pragma macro 7
10	255	108		setout __constVal0, 2, __D0humeur, 1, __constVal3, 8, __constVal0, 6, __constVal32, 7, __constVal0, 5, __constVal0, 10, __constVal96, 11, __constVal32, 12, __constVal32, 0, __constVal63
10	6897	131	#line 6897 "D:\Labo - Robotique\Compet'\Projet-Compet.nxc"
10	254	131	#line 254 "D:\Labo - Robotique\Compet'\Projet-Compet.nxc"
10	254	131	#line 254 "D:\Labo - Robotique\Compet'\Projet-Compet.nxc"
10	255	131		set __D0humeur, 50
10	256	134	#line 256 "D:\Labo - Robotique\Compet'\Projet-Compet.nxc"
10	257	134	#pragma macro 7
10	257	134		setout __constVal1, 2, __D0humeur, 1, __constVal3, 8, __constVal0, 6, __constVal32, 7, __constVal0, 5, __constVal0, 10, __constVal96, 11, __constVal32, 12, __constVal32, 0, __constVal63
10	6904	157	#line 6904 "D:\Labo - Robotique\Compet'\Projet-Compet.nxc"
10	256	157	#line 256 "D:\Labo - Robotique\Compet'\Projet-Compet.nxc"
10	256	157	#line 256 "D:\Labo - Robotique\Compet'\Projet-Compet.nxc"
10	257	157	#pragma macro 26
10	257	157		acquire __RLSBmutex2
10	257	158		mov __RLSReadBuf2, __RLSBbufLSWrite1
10	257	160		set __RLSBytesCount2, 1
10	257	163		wait2 NA, __constVal15
10	257	166		subcall __ReadLSBytes2, ____ReadLSBytes2_return
10	257	169		index __D0humeur, __RLSReadBuf2, 65535
10	257	173		release __RLSBmutex2
10	6907	174	#line 6907 "D:\Labo - Robotique\Compet'\Projet-Compet.nxc"
10	256	174	#line 256 "D:\Labo - Robotique\Compet'\Projet-Compet.nxc"
10	257	174		mov __signed_stack_001humeur, __D0humeur
10	257	176	#line 257 "D:\Labo - Robotique\Compet'\Projet-Compet.nxc"
10	258	176		set __D0humeur, 20
10	257	179	#line 257 "D:\Labo - Robotique\Compet'\Projet-Compet.nxc"
10	258	179		cmp 0, __zfhumeur, __signed_stack_001humeur, __D0humeur
10	257	183	#line 257 "D:\Labo - Robotique\Compet'\Projet-Compet.nxc"
10	258	183		mov __D0humeur, __zfhumeur
10	258	186	#line 258 "D:\Labo - Robotique\Compet'\Projet-Compet.nxc"
10	259	186		brtst 4, __NXC_Label_820, __zfhumeur
10	259	189	#line 259 "D:\Labo - Robotique\Compet'\Projet-Compet.nxc"
10	260	189	#pragma macro 7
10	260	189		setout __OUT_AB, 2, __constVal0, 1, __constVal3, 8, __constVal0, 6, __constVal32, 7, __constVal0, 5, __constVal0, 10, __constVal96, 11, __constVal32, 12, __constVal32, 0, __constVal63
10	6921	212	#line 6921 "D:\Labo - Robotique\Compet'\Projet-Compet.nxc"
10	259	212	#line 259 "D:\Labo - Robotique\Compet'\Projet-Compet.nxc"
10	259	212	#line 259 "D:\Labo - Robotique\Compet'\Projet-Compet.nxc"
10	260	212		set __signed_stack_001humeur, 57
10	259	215	#line 259 "D:\Labo - Robotique\Compet'\Projet-Compet.nxc"
10	259	215	#line 259 "D:\Labo - Robotique\Compet'\Projet-Compet.nxc"
10	260	215		mov __D0humeur, __constValNeg200
10	260	217	#line 260 "D:\Labo - Robotique\Compet'\Projet-Compet.nxc"
10	261	217	#pragma macro 33
10	261	217		acquire __rotateMutex0
10	261	218		arrbuild __rotate_ports0, __constVal0
10	261	222		mov __rotate_power0, __signed_stack_001humeur
10	261	224		mov __rotate_angle0, __D0humeur
10	261	226		mov __rotate_turnpct0, __constVal0
10	261	228		mov __rotate_sync0, __constVal0
10	261	230		mov __rotate_stop0, __constVal1
10	261	232		mov __rotate_theRVP0, __constVal32
10	261	234		mov __rotate_theRVI0, __constVal0
10	261	236		mov __rotate_theRVD0, __constVal96
10	261	238		subcall __RotateMotor0, ____RotateMotor0_return
10	261	241		release __rotateMutex0
10	6934	242	#line 6934 "D:\Labo - Robotique\Compet'\Projet-Compet.nxc"
10	260	242	#line 260 "D:\Labo - Robotique\Compet'\Projet-Compet.nxc"
10	260	242	#line 260 "D:\Labo - Robotique\Compet'\Projet-Compet.nxc"
10	261	242		set __signed_stack_001humeur, 50
10	260	245	#line 260 "D:\Labo - Robotique\Compet'\Projet-Compet.nxc"
10	260	245	#line 260 "D:\Labo - Robotique\Compet'\Projet-Compet.nxc"
10	261	245		set __D0humeur, 200
10	261	248	#line 261 "D:\Labo - Robotique\Compet'\Projet-Compet.nxc"
10	262	248	#pragma macro 33
10	262	248		acquire __rotateMutex1
10	262	249		arrbuild __rotate_ports1, __constVal1
10	262	253		mov __rotate_power1, __signed_stack_001humeur
10	262	255		mov __rotate_angle1, __D0humeur
10	262	257		mov __rotate_turnpct1, __constVal0
10	262	259		mov __rotate_sync1, __constVal0
10	262	261		mov __rotate_stop1, __constVal1
10	262	263		mov __rotate_theRVP1, __constVal32
10	262	265		mov __rotate_theRVI1, __constVal0
10	262	267		mov __rotate_theRVD1, __constVal96
10	262	269		subcall __RotateMotor1, ____RotateMotor1_return
10	262	272		release __rotateMutex1
10	6947	273	#line 6947 "D:\Labo - Robotique\Compet'\Projet-Compet.nxc"
10	261	273	#line 261 "D:\Labo - Robotique\Compet'\Projet-Compet.nxc"
10	263	273	#line 263 "D:\Labo - Robotique\Compet'\Projet-Compet.nxc"
10	263	273	#line 263 "D:\Labo - Robotique\Compet'\Projet-Compet.nxc"
10	264	273		mov __signed_stack_001humeur, __humeur_7qG2_csr_7qG2_001.ColorValue
10	263	276	#line 263 "D:\Labo - Robotique\Compet'\Projet-Compet.nxc"
10	263	276	#line 263 "D:\Labo - Robotique\Compet'\Projet-Compet.nxc"
10	264	276		set __D0humeur, 3
10	263	279	#line 263 "D:\Labo - Robotique\Compet'\Projet-Compet.nxc"
10	264	279		cmp 4, __zfhumeur, __signed_stack_001humeur, __D0humeur
10	263	283	#line 263 "D:\Labo - Robotique\Compet'\Projet-Compet.nxc"
10	264	283		mov __D0humeur, __zfhumeur
10	263	286	#line 263 "D:\Labo - Robotique\Compet'\Projet-Compet.nxc"
10	264	286		brtst 4, __NXC_Label_830, __zfhumeur
10	263	289	#line 263 "D:\Labo - Robotique\Compet'\Projet-Compet.nxc"
10	264	289		mov __signed_stack_001humeur, __D0humeur
10	263	291	#line 263 "D:\Labo - Robotique\Compet'\Projet-Compet.nxc"
10	264	291		mov __signed_stack_002humeur, __humeur_7qG2_count_7qG2_000
10	263	293	#line 263 "D:\Labo - Robotique\Compet'\Projet-Compet.nxc"
10	263	293	#line 263 "D:\Labo - Robotique\Compet'\Projet-Compet.nxc"
10	264	293		set __D0humeur, 7
10	263	296	#line 263 "D:\Labo - Robotique\Compet'\Projet-Compet.nxc"
10	264	296		cmp 4, __zfhumeur, __signed_stack_002humeur, __D0humeur
10	263	300	#line 263 "D:\Labo - Robotique\Compet'\Projet-Compet.nxc"
10	264	300	#line 264 "D:\Labo - Robotique\Compet'\Projet-Compet.nxc"
10	265	300		and __D0humeur, __signed_stack_001humeur, __zfhumeur
10	265	304	#line 265 "D:\Labo - Robotique\Compet'\Projet-Compet.nxc"
10	266	304		tst 5, __zfhumeur, __D0humeur
10	265	307	#line 265 "D:\Labo - Robotique\Compet'\Projet-Compet.nxc"
10	266	307		brtst 4, __NXC_Label_835, __zfhumeur
10	265	310	#line 265 "D:\Labo - Robotique\Compet'\Projet-Compet.nxc"
10	266	310		set __D0humeur, 57
10	266	313	#line 266 "D:\Labo - Robotique\Compet'\Projet-Compet.nxc"
10	267	313	#pragma macro 10
10	267	313		acquire __OnRevMutex
10	267	314		neg __OnRev_Tmp, __D0humeur
10	267	317		setout __constVal0, 2, __OnRev_Tmp, 1, __constVal3, 8, __constVal0, 6, __constVal32, 7, __constVal0, 5, __constVal0, 10, __constVal96, 11, __constVal32, 12, __constVal32, 0, __constVal63
10	267	340		release __OnRevMutex
10	6992	341	#line 6992 "D:\Labo - Robotique\Compet'\Projet-Compet.nxc"
10	266	341	#line 266 "D:\Labo - Robotique\Compet'\Projet-Compet.nxc"
10	266	341	#line 266 "D:\Labo - Robotique\Compet'\Projet-Compet.nxc"
10	267	341		set __D0humeur, 50
10	267	344	#line 267 "D:\Labo - Robotique\Compet'\Projet-Compet.nxc"
10	268	344	#pragma macro 10
10	268	344		acquire __OnRevMutex
10	268	345		neg __OnRev_Tmp, __D0humeur
10	268	348		setout __constVal1, 2, __OnRev_Tmp, 1, __constVal3, 8, __constVal0, 6, __constVal32, 7, __constVal0, 5, __constVal0, 10, __constVal96, 11, __constVal32, 12, __constVal32, 0, __constVal63
10	268	371		release __OnRevMutex
10	6999	372	#line 6999 "D:\Labo - Robotique\Compet'\Projet-Compet.nxc"
10	267	372	#line 267 "D:\Labo - Robotique\Compet'\Projet-Compet.nxc"
10	267	372	#line 267 "D:\Labo - Robotique\Compet'\Projet-Compet.nxc"
10	268	372		set __Wait_7qG2_ms_7qG2_000_inline_humeur, 3000
10	267	375	#line 267 "D:\Labo - Robotique\Compet'\Projet-Compet.nxc"
10	7921	375	#line 7921 "NXCDefs.h"
10	7922	375		wait2 NA, __Wait_7qG2_ms_7qG2_000_inline_humeur
10	7921	378	#line 7921 "NXCDefs.h"
10	268	378	#line 268 "D:\Labo - Robotique\Compet'\Projet-Compet.nxc"
10	268	378	#line 268 "D:\Labo - Robotique\Compet'\Projet-Compet.nxc"
10	269	378		set __D0humeur, 57
10	269	381	#line 269 "D:\Labo - Robotique\Compet'\Projet-Compet.nxc"
10	270	381	#pragma macro 10
10	270	381		acquire __OnRevMutex
10	270	382		neg __OnRev_Tmp, __D0humeur
10	270	385		setout __constVal0, 2, __OnRev_Tmp, 1, __constVal3, 8, __constVal0, 6, __constVal32, 7, __constVal0, 5, __constVal0, 10, __constVal96, 11, __constVal32, 12, __constVal32, 0, __constVal63
10	270	408		release __OnRevMutex
10	7020	409	#line 7020 "D:\Labo - Robotique\Compet'\Projet-Compet.nxc"
10	269	409	#line 269 "D:\Labo - Robotique\Compet'\Projet-Compet.nxc"
10	269	409	#line 269 "D:\Labo - Robotique\Compet'\Projet-Compet.nxc"
10	270	409		set __D0humeur, 50
10	270	412	#line 270 "D:\Labo - Robotique\Compet'\Projet-Compet.nxc"
10	271	412	#pragma macro 7
10	271	412		setout __constVal1, 2, __D0humeur, 1, __constVal3, 8, __constVal0, 6, __constVal32, 7, __constVal0, 5, __constVal0, 10, __constVal96, 11, __constVal32, 12, __constVal32, 0, __constVal63
10	7027	435	#line 7027 "D:\Labo - Robotique\Compet'\Projet-Compet.nxc"
10	270	435	#line 270 "D:\Labo - Robotique\Compet'\Projet-Compet.nxc"
10	270	435	#line 270 "D:\Labo - Robotique\Compet'\Projet-Compet.nxc"
10	271	435		set __Wait_7qG2_ms_7qG2_000_inline_humeur, 1500
10	270	438	#line 270 "D:\Labo - Robotique\Compet'\Projet-Compet.nxc"
10	7921	438	#line 7921 "NXCDefs.h"
10	7922	438		wait2 NA, __Wait_7qG2_ms_7qG2_000_inline_humeur
10	7921	441	#line 7921 "NXCDefs.h"
10	271	441	#line 271 "D:\Labo - Robotique\Compet'\Projet-Compet.nxc"
10	272	441	#line 272 "D:\Labo - Robotique\Compet'\Projet-Compet.nxc"
10	273	441	#pragma macro 7
10	273	441		setout __OUT_AB, 2, __constVal0, 1, __constVal3, 8, __constVal0, 6, __constVal32, 7, __constVal0, 5, __constVal0, 10, __constVal96, 11, __constVal32, 12, __constVal32, 0, __constVal63
10	7040	464	#line 7040 "D:\Labo - Robotique\Compet'\Projet-Compet.nxc"
10	272	464	#line 272 "D:\Labo - Robotique\Compet'\Projet-Compet.nxc"
10	272	464	#line 272 "D:\Labo - Robotique\Compet'\Projet-Compet.nxc"
10	273	464		set __Wait_7qG2_ms_7qG2_000_inline_humeur, 50
10	272	467	#line 272 "D:\Labo - Robotique\Compet'\Projet-Compet.nxc"
10	7921	467	#line 7921 "NXCDefs.h"
10	7922	467		wait2 NA, __Wait_7qG2_ms_7qG2_000_inline_humeur
10	7921	470	#line 7921 "NXCDefs.h"
10	274	470	#line 274 "D:\Labo - Robotique\Compet'\Projet-Compet.nxc"
10	274	470	#line 274 "D:\Labo - Robotique\Compet'\Projet-Compet.nxc"
10	275	470		set __humeur_7qG2_i_7qG2_000, 0
10	274	473	#line 274 "D:\Labo - Robotique\Compet'\Projet-Compet.nxc"
10	274	473	#line 274 "D:\Labo - Robotique\Compet'\Projet-Compet.nxc"
10	275	473		mov __signed_stack_001humeur, __humeur_7qG2_i_7qG2_000
10	274	475	#line 274 "D:\Labo - Robotique\Compet'\Projet-Compet.nxc"
10	274	475	#line 274 "D:\Labo - Robotique\Compet'\Projet-Compet.nxc"
10	275	475		set __D0humeur, 4
10	274	478	#line 274 "D:\Labo - Robotique\Compet'\Projet-Compet.nxc"
10	275	478		cmp 2, __zfhumeur, __signed_stack_001humeur, __D0humeur
10	274	482	#line 274 "D:\Labo - Robotique\Compet'\Projet-Compet.nxc"
10	275	482		mov __D0humeur, __zfhumeur
10	274	485	#line 274 "D:\Labo - Robotique\Compet'\Projet-Compet.nxc"
10	275	485		brtst 4, __NXC_Label_851, __zfhumeur
10	274	488	#line 274 "D:\Labo - Robotique\Compet'\Projet-Compet.nxc"
10	275	488		jmp __NXC_Label_852
10	275	490	#line 275 "D:\Labo - Robotique\Compet'\Projet-Compet.nxc"
10	276	490		add __humeur_7qG2_i_7qG2_000, __humeur_7qG2_i_7qG2_000, __constVal1
10	276	494	#line 276 "D:\Labo - Robotique\Compet'\Projet-Compet.nxc"
10	277	494		jmp __NXC_Label_850
10	276	496	#line 276 "D:\Labo - Robotique\Compet'\Projet-Compet.nxc"
10	277	496		set __signed_stack_001humeur, 100
10	276	499	#line 276 "D:\Labo - Robotique\Compet'\Projet-Compet.nxc"
10	276	499	#line 276 "D:\Labo - Robotique\Compet'\Projet-Compet.nxc"
10	277	499		mov __D0humeur, __constValNeg100
10	277	502	#line 277 "D:\Labo - Robotique\Compet'\Projet-Compet.nxc"
10	278	502	#pragma macro 33
10	278	502		acquire __rotateMutex0
10	278	503		arrbuild __rotate_ports0, __constVal0
10	278	507		mov __rotate_power0, __signed_stack_001humeur
10	278	509		mov __rotate_angle0, __D0humeur
10	278	511		mov __rotate_turnpct0, __constVal0
10	278	513		mov __rotate_sync0, __constVal0
10	278	515		mov __rotate_stop0, __constVal1
10	278	517		mov __rotate_theRVP0, __constVal32
10	278	519		mov __rotate_theRVI0, __constVal0
10	278	521		mov __rotate_theRVD0, __constVal96
10	278	523		subcall __RotateMotor0, ____RotateMotor0_return
10	278	526		release __rotateMutex0
10	7092	527	#line 7092 "D:\Labo - Robotique\Compet'\Projet-Compet.nxc"
10	277	527	#line 277 "D:\Labo - Robotique\Compet'\Projet-Compet.nxc"
10	277	527	#line 277 "D:\Labo - Robotique\Compet'\Projet-Compet.nxc"
10	278	527		set __signed_stack_001humeur, 100
10	277	530	#line 277 "D:\Labo - Robotique\Compet'\Projet-Compet.nxc"
10	277	530	#line 277 "D:\Labo - Robotique\Compet'\Projet-Compet.nxc"
10	278	530		mov __D0humeur, __constValNeg100
10	278	533	#line 278 "D:\Labo - Robotique\Compet'\Projet-Compet.nxc"
10	279	533	#pragma macro 33
10	279	533		acquire __rotateMutex1
10	279	534		arrbuild __rotate_ports1, __constVal1
10	279	538		mov __rotate_power1, __signed_stack_001humeur
10	279	540		mov __rotate_angle1, __D0humeur
10	279	542		mov __rotate_turnpct1, __constVal0
10	279	544		mov __rotate_sync1, __constVal0
10	279	546		mov __rotate_stop1, __constVal1
10	279	548		mov __rotate_theRVP1, __constVal32
10	279	550		mov __rotate_theRVI1, __constVal0
10	279	552		mov __rotate_theRVD1, __constVal96
10	279	554		subcall __RotateMotor1, ____RotateMotor1_return
10	279	557		release __rotateMutex1
10	7105	558	#line 7105 "D:\Labo - Robotique\Compet'\Projet-Compet.nxc"
10	278	558	#line 278 "D:\Labo - Robotique\Compet'\Projet-Compet.nxc"
10	279	558	#line 279 "D:\Labo - Robotique\Compet'\Projet-Compet.nxc"
10	280	558		jmp __NXC_Label_853
10	279	560	#line 279 "D:\Labo - Robotique\Compet'\Projet-Compet.nxc"
10	280	560	#line 280 "D:\Labo - Robotique\Compet'\Projet-Compet.nxc"
10	281	560		add __humeur_7qG2_count_7qG2_000, __humeur_7qG2_count_7qG2_000, __constVal1
10	280	564	#line 280 "D:\Labo - Robotique\Compet'\Projet-Compet.nxc"
10	280	564	#line 280 "D:\Labo - Robotique\Compet'\Projet-Compet.nxc"
10	281	564		set __D0humeur, 57
10	281	567	#line 281 "D:\Labo - Robotique\Compet'\Projet-Compet.nxc"
10	282	567	#pragma macro 10
10	282	567		acquire __OnRevMutex
10	282	568		neg __OnRev_Tmp, __D0humeur
10	282	571		setout __constVal0, 2, __OnRev_Tmp, 1, __constVal3, 8, __constVal0, 6, __constVal32, 7, __constVal0, 5, __constVal0, 10, __constVal96, 11, __constVal32, 12, __constVal32, 0, __constVal63
10	282	594		release __OnRevMutex
10	7119	595	#line 7119 "D:\Labo - Robotique\Compet'\Projet-Compet.nxc"
10	281	595	#line 281 "D:\Labo - Robotique\Compet'\Projet-Compet.nxc"
10	281	595	#line 281 "D:\Labo - Robotique\Compet'\Projet-Compet.nxc"
10	282	595		set __D0humeur, 50
10	282	598	#line 282 "D:\Labo - Robotique\Compet'\Projet-Compet.nxc"
10	283	598	#pragma macro 7
10	283	598		setout __constVal1, 2, __D0humeur, 1, __constVal3, 8, __constVal0, 6, __constVal32, 7, __constVal0, 5, __constVal0, 10, __constVal96, 11, __constVal32, 12, __constVal32, 0, __constVal63
10	7126	621	#line 7126 "D:\Labo - Robotique\Compet'\Projet-Compet.nxc"
10	282	621	#line 282 "D:\Labo - Robotique\Compet'\Projet-Compet.nxc"
10	282	621	#line 282 "D:\Labo - Robotique\Compet'\Projet-Compet.nxc"
10	283	621		set __Wait_7qG2_ms_7qG2_000_inline_humeur, 2500
10	282	624	#line 282 "D:\Labo - Robotique\Compet'\Projet-Compet.nxc"
10	7921	624	#line 7921 "NXCDefs.h"
10	7922	624		wait2 NA, __Wait_7qG2_ms_7qG2_000_inline_humeur
10	7921	627	#line 7921 "NXCDefs.h"
10	283	627	#line 283 "D:\Labo - Robotique\Compet'\Projet-Compet.nxc"
10	283	627	#line 283 "D:\Labo - Robotique\Compet'\Projet-Compet.nxc"
10	284	627		set __D0humeur, 57
10	284	630	#line 284 "D:\Labo - Robotique\Compet'\Projet-Compet.nxc"
10	285	630	#pragma macro 7
10	285	630		setout __constVal0, 2, __D0humeur, 1, __constVal3, 8, __constVal0, 6, __constVal32, 7, __constVal0, 5, __constVal0, 10, __constVal96, 11, __constVal32, 12, __constVal32, 0, __constVal63
10	7143	653	#line 7143 "D:\Labo - Robotique\Compet'\Projet-Compet.nxc"
10	284	653	#line 284 "D:\Labo - Robotique\Compet'\Projet-Compet.nxc"
10	284	653	#line 284 "D:\Labo - Robotique\Compet'\Projet-Compet.nxc"
10	285	653		set __D0humeur, 50
10	285	656	#line 285 "D:\Labo - Robotique\Compet'\Projet-Compet.nxc"
10	286	656	#pragma macro 10
10	286	656		acquire __OnRevMutex
10	286	657		neg __OnRev_Tmp, __D0humeur
10	286	660		setout __constVal1, 2, __OnRev_Tmp, 1, __constVal3, 8, __constVal0, 6, __constVal32, 7, __constVal0, 5, __constVal0, 10, __constVal96, 11, __constVal32, 12, __constVal32, 0, __constVal63
10	286	683		release __OnRevMutex
10	7150	684	#line 7150 "D:\Labo - Robotique\Compet'\Projet-Compet.nxc"
10	285	684	#line 285 "D:\Labo - Robotique\Compet'\Projet-Compet.nxc"
10	285	684	#line 285 "D:\Labo - Robotique\Compet'\Projet-Compet.nxc"
10	286	684		set __Wait_7qG2_ms_7qG2_000_inline_humeur, 2500
10	285	687	#line 285 "D:\Labo - Robotique\Compet'\Projet-Compet.nxc"
10	7921	687	#line 7921 "NXCDefs.h"
10	7922	687		wait2 NA, __Wait_7qG2_ms_7qG2_000_inline_humeur
10	7921	690	#line 7921 "NXCDefs.h"
10	286	690	#line 286 "D:\Labo - Robotique\Compet'\Projet-Compet.nxc"
10	286	690	#line 286 "D:\Labo - Robotique\Compet'\Projet-Compet.nxc"
10	287	690		set __D0humeur, 57
10	287	693	#line 287 "D:\Labo - Robotique\Compet'\Projet-Compet.nxc"
10	288	693	#pragma macro 7
10	288	693		setout __constVal0, 2, __D0humeur, 1, __constVal3, 8, __constVal0, 6, __constVal32, 7, __constVal0, 5, __constVal0, 10, __constVal96, 11, __constVal32, 12, __constVal32, 0, __constVal63
10	7167	716	#line 7167 "D:\Labo - Robotique\Compet'\Projet-Compet.nxc"
10	287	716	#line 287 "D:\Labo - Robotique\Compet'\Projet-Compet.nxc"
10	287	716	#line 287 "D:\Labo - Robotique\Compet'\Projet-Compet.nxc"
10	288	716		set __D0humeur, 50
10	288	719	#line 288 "D:\Labo - Robotique\Compet'\Projet-Compet.nxc"
10	289	719	#pragma macro 7
10	289	719		setout __constVal1, 2, __D0humeur, 1, __constVal3, 8, __constVal0, 6, __constVal32, 7, __constVal0, 5, __constVal0, 10, __constVal96, 11, __constVal32, 12, __constVal32, 0, __constVal63
10	7174	742	#line 7174 "D:\Labo - Robotique\Compet'\Projet-Compet.nxc"
10	288	742	#line 288 "D:\Labo - Robotique\Compet'\Projet-Compet.nxc"
10	289	742	#line 289 "D:\Labo - Robotique\Compet'\Projet-Compet.nxc"
10	290	742	#pragma macro 7
10	290	742		setout __OUT_AB, 2, __constVal0, 1, __constVal3, 8, __constVal0, 6, __constVal32, 7, __constVal0, 5, __constVal0, 10, __constVal96, 11, __constVal32, 12, __constVal32, 0, __constVal63
10	7177	765	#line 7177 "D:\Labo - Robotique\Compet'\Projet-Compet.nxc"
10	289	765	#line 289 "D:\Labo - Robotique\Compet'\Projet-Compet.nxc"
10	289	765	#line 289 "D:\Labo - Robotique\Compet'\Projet-Compet.nxc"
10	290	765		set __D0humeur, 100
10	290	768	#line 290 "D:\Labo - Robotique\Compet'\Projet-Compet.nxc"
10	291	768	#pragma macro 7
10	291	768		setout __constVal0, 2, __D0humeur, 1, __constVal3, 8, __constVal0, 6, __constVal32, 7, __constVal0, 5, __constVal0, 10, __constVal96, 11, __constVal32, 12, __constVal32, 0, __constVal63
10	7184	791	#line 7184 "D:\Labo - Robotique\Compet'\Projet-Compet.nxc"
10	290	791	#line 290 "D:\Labo - Robotique\Compet'\Projet-Compet.nxc"
10	290	791	#line 290 "D:\Labo - Robotique\Compet'\Projet-Compet.nxc"
10	291	791		set __Wait_7qG2_ms_7qG2_000_inline_humeur, 500
10	290	794	#line 290 "D:\Labo - Robotique\Compet'\Projet-Compet.nxc"
10	7921	794	#line 7921 "NXCDefs.h"
10	7922	794		wait2 NA, __Wait_7qG2_ms_7qG2_000_inline_humeur
10	7921	797	#line 7921 "NXCDefs.h"
10	291	797	#line 291 "D:\Labo - Robotique\Compet'\Projet-Compet.nxc"
10	291	797	#line 291 "D:\Labo - Robotique\Compet'\Projet-Compet.nxc"
10	292	797		set __D0humeur, 100
10	292	800	#line 292 "D:\Labo - Robotique\Compet'\Projet-Compet.nxc"
10	293	800	#pragma macro 10
10	293	800		acquire __OnRevMutex
10	293	801		neg __OnRev_Tmp, __D0humeur
10	293	804		setout __constVal1, 2, __OnRev_Tmp, 1, __constVal3, 8, __constVal0, 6, __constVal32, 7, __constVal0, 5, __constVal0, 10, __constVal96, 11, __constVal32, 12, __constVal32, 0, __constVal63
10	293	827		release __OnRevMutex
10	7201	828	#line 7201 "D:\Labo - Robotique\Compet'\Projet-Compet.nxc"
10	292	828	#line 292 "D:\Labo - Robotique\Compet'\Projet-Compet.nxc"
10	292	828	#line 292 "D:\Labo - Robotique\Compet'\Projet-Compet.nxc"
10	293	828		set __Wait_7qG2_ms_7qG2_000_inline_humeur, 500
10	292	831	#line 292 "D:\Labo - Robotique\Compet'\Projet-Compet.nxc"
10	7921	831	#line 7921 "NXCDefs.h"
10	7922	831		wait2 NA, __Wait_7qG2_ms_7qG2_000_inline_humeur
10	7921	834	#line 7921 "NXCDefs.h"
10	293	834	#line 293 "D:\Labo - Robotique\Compet'\Projet-Compet.nxc"
10	294	834	#line 294 "D:\Labo - Robotique\Compet'\Projet-Compet.nxc"
10	295	834		jmp __NXC_Label_807
10	294	836	#line 294 "D:\Labo - Robotique\Compet'\Projet-Compet.nxc"
10	297	836	#line 297 "D:\Labo - Robotique\Compet'\Projet-Compet.nxc"
10	299	836	#line 299 "D:\Labo - Robotique\Compet'\Projet-Compet.nxc"
10	300	836		jmp __NXC_Label_806
10	299	838	#line 299 "D:\Labo - Robotique\Compet'\Projet-Compet.nxc"
10	299	838	#line 299 "D:\Labo - Robotique\Compet'\Projet-Compet.nxc"
10	300	838		subret __humeur_return
11	301	0	#line 301 "D:\Labo - Robotique\Compet'\Projet-Compet.nxc"
11	302	0		set __SetSensorType_7qG2_port_7qG2_000_inline_cle, 0
11	301	3	#line 301 "D:\Labo - Robotique\Compet'\Projet-Compet.nxc"
11	301	3	#line 301 "D:\Labo - Robotique\Compet'\Projet-Compet.nxc"
11	302	3		set __SetSensorType_7qG2_type_7qG2_000_inline_cle, 13
11	301	6	#line 301 "D:\Labo - Robotique\Compet'\Projet-Compet.nxc"
11	3663	6	#line 3663 "NXCDefs.h"
11	3664	6		setin __SetSensorType_7qG2_type_7qG2_000_inline_cle, __SetSensorType_7qG2_port_7qG2_000_inline_cle, 0
11	3663	10	#line 3663 "NXCDefs.h"
11	302	10	#line 302 "D:\Labo - Robotique\Compet'\Projet-Compet.nxc"
11	302	10	#line 302 "D:\Labo - Robotique\Compet'\Projet-Compet.nxc"
11	303	10		set __SetSensorType_7qG2_port_7qG2_000_inline_cle, 1
11	302	13	#line 302 "D:\Labo - Robotique\Compet'\Projet-Compet.nxc"
11	302	13	#line 302 "D:\Labo - Robotique\Compet'\Projet-Compet.nxc"
11	303	13		set __SetSensorType_7qG2_type_7qG2_000_inline_cle, 1
11	302	16	#line 302 "D:\Labo - Robotique\Compet'\Projet-Compet.nxc"
11	3663	16	#line 3663 "NXCDefs.h"
11	3664	16		setin __SetSensorType_7qG2_type_7qG2_000_inline_cle, __SetSensorType_7qG2_port_7qG2_000_inline_cle, 0
11	3663	20	#line 3663 "NXCDefs.h"
11	303	20	#line 303 "D:\Labo - Robotique\Compet'\Projet-Compet.nxc"
11	303	20	#line 303 "D:\Labo - Robotique\Compet'\Projet-Compet.nxc"
11	303	20	#line 303 "D:\Labo - Robotique\Compet'\Projet-Compet.nxc"
11	3768	20	#line 3768 "NXCDefs.h"
11	3769	20		mov __SetSensorLowspeed_7qG2_port_7qG2_000_inline_SetSensorUltrasonic_inline_cle, __constVal2
11	3768	22	#line 3768 "NXCDefs.h"
11	3768	22	#line 3768 "NXCDefs.h"
11	3769	22		mov __SetSensorLowspeed_7qG2_bIsPowered_7qG2_000_inline_SetSensorUltrasonic_inline_cle, __constVal1
11	3758	24	#line 3758 "NXCDefs.h"
11	3759	24		mov __SetSensorType_7qG2_port_7qG2_000_inline_SetSensorLowspeed_inline_SetSensorUltrasonic_inline_cle, __SetSensorLowspeed_7qG2_port_7qG2_000_inline_SetSensorUltrasonic_inline_cle
11	3758	26	#line 3758 "NXCDefs.h"
11	3758	26	#line 3758 "NXCDefs.h"
11	3759	26		mov __DU0SetSensorLowspeed_inline_SetSensorUltrasonic, __SetSensorLowspeed_7qG2_bIsPowered_7qG2_000_inline_SetSensorUltrasonic_inline_cle
11	3758	28	#line 3758 "NXCDefs.h"
11	3759	28		tst 5, __zfSetSensorLowspeed_inline_SetSensorUltrasonic, __DU0SetSensorLowspeed_inline_SetSensorUltrasonic
11	3758	31	#line 3758 "NXCDefs.h"
11	3759	31		brtst 4, __001__005__NXC_Label_36, __zfSetSensorLowspeed_inline_SetSensorUltrasonic
11	3758	34	#line 3758 "NXCDefs.h"
11	3759	34		set __D0SetSensorLowspeed_inline_SetSensorUltrasonic, 11
11	3758	37	#line 3758 "NXCDefs.h"
11	3759	37		jmp __001__005__NXC_Label_37
11	3758	39	#line 3758 "NXCDefs.h"
11	3759	39		set __D0SetSensorLowspeed_inline_SetSensorUltrasonic, 10
11	3758	42	#line 3758 "NXCDefs.h"
11	3759	42		mov __SetSensorType_7qG2_type_7qG2_000_inline_SetSensorLowspeed_inline_SetSensorUltrasonic_inline_cle, __D0SetSensorLowspeed_inline_SetSensorUltrasonic
11	3663	44	#line 3663 "NXCDefs.h"
11	3664	44		setin __SetSensorType_7qG2_type_7qG2_000_inline_SetSensorLowspeed_inline_SetSensorUltrasonic_inline_cle, __SetSensorType_7qG2_port_7qG2_000_inline_SetSensorLowspeed_inline_SetSensorUltrasonic_inline_cle, 0
11	3663	48	#line 3663 "NXCDefs.h"
11	3759	48	#line 3759 "NXCDefs.h"
11	3759	48	#line 3759 "NXCDefs.h"
11	3760	48		mov __SetSensorMode_7qG2_port_7qG2_000_inline_SetSensorLowspeed_inline_SetSensorUltrasonic_inline_cle, __SetSensorLowspeed_7qG2_port_7qG2_000_inline_SetSensorUltrasonic_inline_cle
11	3759	50	#line 3759 "NXCDefs.h"
11	3759	50	#line 3759 "NXCDefs.h"
11	3760	50		set __SetSensorMode_7qG2_mode_7qG2_000_inline_SetSensorLowspeed_inline_SetSensorUltrasonic_inline_cle, 0
11	3759	53	#line 3759 "NXCDefs.h"
11	3676	53	#line 3676 "NXCDefs.h"
11	3677	53		setin __SetSensorMode_7qG2_mode_7qG2_000_inline_SetSensorLowspeed_inline_SetSensorUltrasonic_inline_cle, __SetSensorMode_7qG2_port_7qG2_000_inline_SetSensorLowspeed_inline_SetSensorUltrasonic_inline_cle, 1
11	3676	57	#line 3676 "NXCDefs.h"
11	3760	57	#line 3760 "NXCDefs.h"
11	3760	57	#line 3760 "NXCDefs.h"
11	3761	57		mov __ResetSensor_7qG2_port_7qG2_000_inline_SetSensorLowspeed_inline_SetSensorUltrasonic_inline_cle, __SetSensorLowspeed_7qG2_port_7qG2_000_inline_SetSensorUltrasonic_inline_cle
11	3760	59	#line 3760 "NXCDefs.h"
11	3694	59	#line 3694 "NXCDefs.h"
11	3695	59	#pragma macro 4
11	3695	59		acquire __ResetSensorMutex
11	3695	60		mov __ResetSensorPort, __ResetSensor_7qG2_port_7qG2_000_inline_SetSensorLowspeed_inline_SetSensorUltrasonic_inline_cle
11	3695	62		subcall __ResetSensorSubroutine, ____ResetSensorSubroutine_return
11	3695	65		release __ResetSensorMutex
11	7368	66	#line 7368 "NXCDefs.h"
11	3694	66	#line 3694 "NXCDefs.h"
11	3761	66	#line 3761 "NXCDefs.h"
11	3768	66	#line 3768 "NXCDefs.h"
11	304	66	#line 304 "D:\Labo - Robotique\Compet'\Projet-Compet.nxc"
11	304	66	#line 304 "D:\Labo - Robotique\Compet'\Projet-Compet.nxc"
11	304	66	#line 304 "D:\Labo - Robotique\Compet'\Projet-Compet.nxc"
11	306	66	#line 306 "D:\Labo - Robotique\Compet'\Projet-Compet.nxc"
11	306	66	#line 306 "D:\Labo - Robotique\Compet'\Projet-Compet.nxc"
11	307	66	#line 307 "D:\Labo - Robotique\Compet'\Projet-Compet.nxc"
11	308	66		set __D0cle, 1
11	308	69	#line 308 "D:\Labo - Robotique\Compet'\Projet-Compet.nxc"
11	309	69		tst 5, __zfcle, __D0cle
11	308	72	#line 308 "D:\Labo - Robotique\Compet'\Projet-Compet.nxc"
11	309	72		brtst 4, __NXC_Label_905, __zfcle
11	308	75	#line 308 "D:\Labo - Robotique\Compet'\Projet-Compet.nxc"
11	309	75		set __SetSensorColorFull_7qG2_port_7qG2_000_inline_cle, 0
11	308	78	#line 308 "D:\Labo - Robotique\Compet'\Projet-Compet.nxc"
11	3802	78	#line 3802 "NXCDefs.h"
11	3803	78	#pragma macro 6
11	3803	78		setin __constVal13, __SetSensorColorFull_7qG2_port_7qG2_000_inline_cle, 0
11	3803	82		setin __constVal0, __SetSensorColorFull_7qG2_port_7qG2_000_inline_cle, 1
11	3803	86		acquire __ResetSensorMutex
11	3803	87		mov __ResetSensorPort, __SetSensorColorFull_7qG2_port_7qG2_000_inline_cle
11	3803	89		subcall __ResetSensorSubroutine, ____ResetSensorSubroutine_return
11	3803	92		release __ResetSensorMutex
11	7433	93	#line 7433 "NXCDefs.h"
11	3802	93	#line 3802 "NXCDefs.h"
11	309	93	#line 309 "D:\Labo - Robotique\Compet'\Projet-Compet.nxc"
11	311	93	#line 311 "D:\Labo - Robotique\Compet'\Projet-Compet.nxc"
11	312	93		set __cle_7qG2_csr_7qG2_001.Port, 0
11	311	96	#line 311 "D:\Labo - Robotique\Compet'\Projet-Compet.nxc"
11	311	96	#line 311 "D:\Labo - Robotique\Compet'\Projet-Compet.nxc"
11	312	96	#line 312 "D:\Labo - Robotique\Compet'\Projet-Compet.nxc"
11	313	96	#pragma macro 4
11	313	96	#line 313 "D:\Labo - Robotique\Compet'\Projet-Compet.nxc"
11	313	96		syscall 34, __cle_7qG2_csr_7qG2_001
11	311	99	#line 311 "D:\Labo - Robotique\Compet'\Projet-Compet.nxc"
11	311	99	#line 311 "D:\Labo - Robotique\Compet'\Projet-Compet.nxc"
11	311	99	#line 311 "D:\Labo - Robotique\Compet'\Projet-Compet.nxc"
11	311	99	#line 311 "D:\Labo - Robotique\Compet'\Projet-Compet.nxc"
11	313	99	#line 313 "D:\Labo - Robotique\Compet'\Projet-Compet.nxc"
11	312	99	#line 312 "D:\Labo - Robotique\Compet'\Projet-Compet.nxc"
11	313	99	#line 313 "D:\Labo - Robotique\Compet'\Projet-Compet.nxc"
11	314	99		set __D0cle, 53
11	314	102	#line 314 "D:\Labo - Robotique\Compet'\Projet-Compet.nxc"
11	315	102	#pragma macro 7
11	315	102		setout __constVal0, 2, __D0cle, 1, __constVal3, 8, __constVal0, 6, __constVal32, 7, __constVal0, 5, __constVal0, 10, __constVal96, 11, __constVal32, 12, __constVal32, 0, __constVal63
11	7463	125	#line 7463 "D:\Labo - Robotique\Compet'\Projet-Compet.nxc"
11	314	125	#line 314 "D:\Labo - Robotique\Compet'\Projet-Compet.nxc"
11	314	125	#line 314 "D:\Labo - Robotique\Compet'\Projet-Compet.nxc"
11	315	125		set __D0cle, 50
11	316	128	#line 316 "D:\Labo - Robotique\Compet'\Projet-Compet.nxc"
11	317	128	#pragma macro 7
11	317	128		setout __constVal1, 2, __D0cle, 1, __constVal3, 8, __constVal0, 6, __constVal32, 7, __constVal0, 5, __constVal0, 10, __constVal96, 11, __constVal32, 12, __constVal32, 0, __constVal63
11	7470	151	#line 7470 "D:\Labo - Robotique\Compet'\Projet-Compet.nxc"
11	316	151	#line 316 "D:\Labo - Robotique\Compet'\Projet-Compet.nxc"
11	316	151	#line 316 "D:\Labo - Robotique\Compet'\Projet-Compet.nxc"
11	317	151		mov __signed_stack_001cle, __cle_7qG2_csr_7qG2_001.ColorValue
11	316	154	#line 316 "D:\Labo - Robotique\Compet'\Projet-Compet.nxc"
11	317	154	#line 317 "D:\Labo - Robotique\Compet'\Projet-Compet.nxc"
11	318	154		set __D0cle, 1
11	317	157	#line 317 "D:\Labo - Robotique\Compet'\Projet-Compet.nxc"
11	318	157		cmp 4, __zfcle, __signed_stack_001cle, __D0cle
11	317	161	#line 317 "D:\Labo - Robotique\Compet'\Projet-Compet.nxc"
11	318	161		mov __D0cle, __zfcle
11	318	164	#line 318 "D:\Labo - Robotique\Compet'\Projet-Compet.nxc"
11	319	164		brtst 4, __NXC_Label_918, __zfcle
11	319	167	#line 319 "D:\Labo - Robotique\Compet'\Projet-Compet.nxc"
11	320	167	#pragma macro 7
11	320	167		setout __OUT_AB, 2, __constVal0, 1, __constVal3, 8, __constVal0, 6, __constVal32, 7, __constVal0, 5, __constVal0, 10, __constVal96, 11, __constVal32, 12, __constVal32, 0, __constVal63
11	7487	190	#line 7487 "D:\Labo - Robotique\Compet'\Projet-Compet.nxc"
11	319	190	#line 319 "D:\Labo - Robotique\Compet'\Projet-Compet.nxc"
11	319	190	#line 319 "D:\Labo - Robotique\Compet'\Projet-Compet.nxc"
11	320	190		set __Wait_7qG2_ms_7qG2_000_inline_cle, 100
11	319	193	#line 319 "D:\Labo - Robotique\Compet'\Projet-Compet.nxc"
11	7921	193	#line 7921 "NXCDefs.h"
11	7922	193		wait2 NA, __Wait_7qG2_ms_7qG2_000_inline_cle
11	7921	196	#line 7921 "NXCDefs.h"
11	320	196	#line 320 "D:\Labo - Robotique\Compet'\Projet-Compet.nxc"
11	320	196	#line 320 "D:\Labo - Robotique\Compet'\Projet-Compet.nxc"
11	321	196		set __signed_stack_001cle, 880
11	320	199	#line 320 "D:\Labo - Robotique\Compet'\Projet-Compet.nxc"
11	320	199	#line 320 "D:\Labo - Robotique\Compet'\Projet-Compet.nxc"
11	321	199		set __signed_stack_002cle, 150
11	320	202	#line 320 "D:\Labo - Robotique\Compet'\Projet-Compet.nxc"
11	320	202	#line 320 "D:\Labo - Robotique\Compet'\Projet-Compet.nxc"
11	321	202		set __signed_stack_003cle, 4
11	320	205	#line 320 "D:\Labo - Robotique\Compet'\Projet-Compet.nxc"
11	320	205	#line 320 "D:\Labo - Robotique\Compet'\Projet-Compet.nxc"
11	321	205		set __D0cle, 0
11	321	208	#line 321 "D:\Labo - Robotique\Compet'\Projet-Compet.nxc"
11	322	208		acquire __SPTArgsMutex
11	321	209	#line 321 "D:\Labo - Robotique\Compet'\Projet-Compet.nxc"
11	322	209		mov __SPTArgs.Frequency, __signed_stack_001cle
11	321	212	#line 321 "D:\Labo - Robotique\Compet'\Projet-Compet.nxc"
11	322	212		mov __SPTArgs.Duration, __signed_stack_002cle
11	321	215	#line 321 "D:\Labo - Robotique\Compet'\Projet-Compet.nxc"
11	322	215		mov __SPTArgs.Volume, __signed_stack_003cle
11	321	218	#line 321 "D:\Labo - Robotique\Compet'\Projet-Compet.nxc"
11	322	218		mov __SPTArgs.Loop, __D0cle
11	321	221	#line 321 "D:\Labo - Robotique\Compet'\Projet-Compet.nxc"
11	322	221		syscall 10, __SPTArgs
11	321	224	#line 321 "D:\Labo - Robotique\Compet'\Projet-Compet.nxc"
11	322	224		mov __D0cle, __SPTArgs.Result
11	321	227	#line 321 "D:\Labo - Robotique\Compet'\Projet-Compet.nxc"
11	322	227		release __SPTArgsMutex
11	321	228	#line 321 "D:\Labo - Robotique\Compet'\Projet-Compet.nxc"
11	321	228	#line 321 "D:\Labo - Robotique\Compet'\Projet-Compet.nxc"
11	322	228		set __Wait_7qG2_ms_7qG2_000_inline_cle, 175
11	321	231	#line 321 "D:\Labo - Robotique\Compet'\Projet-Compet.nxc"
11	7921	231	#line 7921 "NXCDefs.h"
11	7922	231		wait2 NA, __Wait_7qG2_ms_7qG2_000_inline_cle
11	7921	234	#line 7921 "NXCDefs.h"
11	322	234	#line 322 "D:\Labo - Robotique\Compet'\Projet-Compet.nxc"
11	322	234	#line 322 "D:\Labo - Robotique\Compet'\Projet-Compet.nxc"
11	323	234		set __signed_stack_001cle, 830
11	322	237	#line 322 "D:\Labo - Robotique\Compet'\Projet-Compet.nxc"
11	322	237	#line 322 "D:\Labo - Robotique\Compet'\Projet-Compet.nxc"
11	323	237		set __signed_stack_002cle, 150
11	322	240	#line 322 "D:\Labo - Robotique\Compet'\Projet-Compet.nxc"
11	322	240	#line 322 "D:\Labo - Robotique\Compet'\Projet-Compet.nxc"
11	323	240		set __signed_stack_003cle, 4
11	322	243	#line 322 "D:\Labo - Robotique\Compet'\Projet-Compet.nxc"
11	322	243	#line 322 "D:\Labo - Robotique\Compet'\Projet-Compet.nxc"
11	323	243		set __D0cle, 0
11	323	246	#line 323 "D:\Labo - Robotique\Compet'\Projet-Compet.nxc"
11	324	246		acquire __SPTArgsMutex
11	323	247	#line 323 "D:\Labo - Robotique\Compet'\Projet-Compet.nxc"
11	324	247		mov __SPTArgs.Frequency, __signed_stack_001cle
11	323	250	#line 323 "D:\Labo - Robotique\Compet'\Projet-Compet.nxc"
11	324	250		mov __SPTArgs.Duration, __signed_stack_002cle
11	323	253	#line 323 "D:\Labo - Robotique\Compet'\Projet-Compet.nxc"
11	324	253		mov __SPTArgs.Volume, __signed_stack_003cle
11	323	256	#line 323 "D:\Labo - Robotique\Compet'\Projet-Compet.nxc"
11	324	256		mov __SPTArgs.Loop, __D0cle
11	323	259	#line 323 "D:\Labo - Robotique\Compet'\Projet-Compet.nxc"
11	324	259		syscall 10, __SPTArgs
11	323	262	#line 323 "D:\Labo - Robotique\Compet'\Projet-Compet.nxc"
11	324	262		mov __D0cle, __SPTArgs.Result
11	323	265	#line 323 "D:\Labo - Robotique\Compet'\Projet-Compet.nxc"
11	324	265		release __SPTArgsMutex
11	323	266	#line 323 "D:\Labo - Robotique\Compet'\Projet-Compet.nxc"
11	323	266	#line 323 "D:\Labo - Robotique\Compet'\Projet-Compet.nxc"
11	324	266		set __Wait_7qG2_ms_7qG2_000_inline_cle, 175
11	323	269	#line 323 "D:\Labo - Robotique\Compet'\Projet-Compet.nxc"
11	7921	269	#line 7921 "NXCDefs.h"
11	7922	269		wait2 NA, __Wait_7qG2_ms_7qG2_000_inline_cle
11	7921	272	#line 7921 "NXCDefs.h"
11	324	272	#line 324 "D:\Labo - Robotique\Compet'\Projet-Compet.nxc"
11	324	272	#line 324 "D:\Labo - Robotique\Compet'\Projet-Compet.nxc"
11	325	272		set __signed_stack_001cle, 622
11	324	275	#line 324 "D:\Labo - Robotique\Compet'\Projet-Compet.nxc"
11	324	275	#line 324 "D:\Labo - Robotique\Compet'\Projet-Compet.nxc"
11	325	275		set __signed_stack_002cle, 150
11	324	278	#line 324 "D:\Labo - Robotique\Compet'\Projet-Compet.nxc"
11	324	278	#line 324 "D:\Labo - Robotique\Compet'\Projet-Compet.nxc"
11	325	278		set __signed_stack_003cle, 4
11	324	281	#line 324 "D:\Labo - Robotique\Compet'\Projet-Compet.nxc"
11	324	281	#line 324 "D:\Labo - Robotique\Compet'\Projet-Compet.nxc"
11	325	281		set __D0cle, 0
11	325	284	#line 325 "D:\Labo - Robotique\Compet'\Projet-Compet.nxc"
11	326	284		acquire __SPTArgsMutex
11	325	285	#line 325 "D:\Labo - Robotique\Compet'\Projet-Compet.nxc"
11	326	285		mov __SPTArgs.Frequency, __signed_stack_001cle
11	325	288	#line 325 "D:\Labo - Robotique\Compet'\Projet-Compet.nxc"
11	326	288		mov __SPTArgs.Duration, __signed_stack_002cle
11	325	291	#line 325 "D:\Labo - Robotique\Compet'\Projet-Compet.nxc"
11	326	291		mov __SPTArgs.Volume, __signed_stack_003cle
11	325	294	#line 325 "D:\Labo - Robotique\Compet'\Projet-Compet.nxc"
11	326	294		mov __SPTArgs.Loop, __D0cle
11	325	297	#line 325 "D:\Labo - Robotique\Compet'\Projet-Compet.nxc"
11	326	297		syscall 10, __SPTArgs
11	325	300	#line 325 "D:\Labo - Robotique\Compet'\Projet-Compet.nxc"
11	326	300		mov __D0cle, __SPTArgs.Result
11	325	303	#line 325 "D:\Labo - Robotique\Compet'\Projet-Compet.nxc"
11	326	303		release __SPTArgsMutex
11	325	304	#line 325 "D:\Labo - Robotique\Compet'\Projet-Compet.nxc"
11	325	304	#line 325 "D:\Labo - Robotique\Compet'\Projet-Compet.nxc"
11	326	304		set __Wait_7qG2_ms_7qG2_000_inline_cle, 175
11	325	307	#line 325 "D:\Labo - Robotique\Compet'\Projet-Compet.nxc"
11	7921	307	#line 7921 "NXCDefs.h"
11	7922	307		wait2 NA, __Wait_7qG2_ms_7qG2_000_inline_cle
11	7921	310	#line 7921 "NXCDefs.h"
11	326	310	#line 326 "D:\Labo - Robotique\Compet'\Projet-Compet.nxc"
11	326	310	#line 326 "D:\Labo - Robotique\Compet'\Projet-Compet.nxc"
11	327	310		set __signed_stack_001cle, 440
11	326	313	#line 326 "D:\Labo - Robotique\Compet'\Projet-Compet.nxc"
11	326	313	#line 326 "D:\Labo - Robotique\Compet'\Projet-Compet.nxc"
11	327	313		set __signed_stack_002cle, 150
11	326	316	#line 326 "D:\Labo - Robotique\Compet'\Projet-Compet.nxc"
11	326	316	#line 326 "D:\Labo - Robotique\Compet'\Projet-Compet.nxc"
11	327	316		set __signed_stack_003cle, 4
11	326	319	#line 326 "D:\Labo - Robotique\Compet'\Projet-Compet.nxc"
11	326	319	#line 326 "D:\Labo - Robotique\Compet'\Projet-Compet.nxc"
11	327	319		set __D0cle, 0
11	327	322	#line 327 "D:\Labo - Robotique\Compet'\Projet-Compet.nxc"
11	328	322		acquire __SPTArgsMutex
11	327	323	#line 327 "D:\Labo - Robotique\Compet'\Projet-Compet.nxc"
11	328	323		mov __SPTArgs.Frequency, __signed_stack_001cle
11	327	326	#line 327 "D:\Labo - Robotique\Compet'\Projet-Compet.nxc"
11	328	326		mov __SPTArgs.Duration, __signed_stack_002cle
11	327	329	#line 327 "D:\Labo - Robotique\Compet'\Projet-Compet.nxc"
11	328	329		mov __SPTArgs.Volume, __signed_stack_003cle
11	327	332	#line 327 "D:\Labo - Robotique\Compet'\Projet-Compet.nxc"
11	328	332		mov __SPTArgs.Loop, __D0cle
11	327	335	#line 327 "D:\Labo - Robotique\Compet'\Projet-Compet.nxc"
11	328	335		syscall 10, __SPTArgs
11	327	338	#line 327 "D:\Labo - Robotique\Compet'\Projet-Compet.nxc"
11	328	338		mov __D0cle, __SPTArgs.Result
11	327	341	#line 327 "D:\Labo - Robotique\Compet'\Projet-Compet.nxc"
11	328	341		release __SPTArgsMutex
11	327	342	#line 327 "D:\Labo - Robotique\Compet'\Projet-Compet.nxc"
11	327	342	#line 327 "D:\Labo - Robotique\Compet'\Projet-Compet.nxc"
11	328	342		set __Wait_7qG2_ms_7qG2_000_inline_cle, 175
11	327	345	#line 327 "D:\Labo - Robotique\Compet'\Projet-Compet.nxc"
11	7921	345	#line 7921 "NXCDefs.h"
11	7922	345		wait2 NA, __Wait_7qG2_ms_7qG2_000_inline_cle
11	7921	348	#line 7921 "NXCDefs.h"
11	328	348	#line 328 "D:\Labo - Robotique\Compet'\Projet-Compet.nxc"
11	328	348	#line 328 "D:\Labo - Robotique\Compet'\Projet-Compet.nxc"
11	329	348		set __signed_stack_001cle, 416
11	328	351	#line 328 "D:\Labo - Robotique\Compet'\Projet-Compet.nxc"
11	328	351	#line 328 "D:\Labo - Robotique\Compet'\Projet-Compet.nxc"
11	329	351		set __signed_stack_002cle, 150
11	328	354	#line 328 "D:\Labo - Robotique\Compet'\Projet-Compet.nxc"
11	328	354	#line 328 "D:\Labo - Robotique\Compet'\Projet-Compet.nxc"
11	329	354		set __signed_stack_003cle, 4
11	328	357	#line 328 "D:\Labo - Robotique\Compet'\Projet-Compet.nxc"
11	328	357	#line 328 "D:\Labo - Robotique\Compet'\Projet-Compet.nxc"
11	329	357		set __D0cle, 0
11	329	360	#line 329 "D:\Labo - Robotique\Compet'\Projet-Compet.nxc"
11	330	360		acquire __SPTArgsMutex
11	329	361	#line 329 "D:\Labo - Robotique\Compet'\Projet-Compet.nxc"
11	330	361		mov __SPTArgs.Frequency, __signed_stack_001cle
11	329	364	#line 329 "D:\Labo - Robotique\Compet'\Projet-Compet.nxc"
11	330	364		mov __SPTArgs.Duration, __signed_stack_002cle
11	329	367	#line 329 "D:\Labo - Robotique\Compet'\Projet-Compet.nxc"
11	330	367		mov __SPTArgs.Volume, __signed_stack_003cle
11	329	370	#line 329 "D:\Labo - Robotique\Compet'\Projet-Compet.nxc"
11	330	370		mov __SPTArgs.Loop, __D0cle
11	329	373	#line 329 "D:\Labo - Robotique\Compet'\Projet-Compet.nxc"
11	330	373		syscall 10, __SPTArgs
11	329	376	#line 329 "D:\Labo - Robotique\Compet'\Projet-Compet.nxc"
11	330	376		mov __D0cle, __SPTArgs.Result
11	329	379	#line 329 "D:\Labo - Robotique\Compet'\Projet-Compet.nxc"
11	330	379		release __SPTArgsMutex
11	329	380	#line 329 "D:\Labo - Robotique\Compet'\Projet-Compet.nxc"
11	329	380	#line 329 "D:\Labo - Robotique\Compet'\Projet-Compet.nxc"
11	330	380		set __Wait_7qG2_ms_7qG2_000_inline_cle, 175
11	329	383	#line 329 "D:\Labo - Robotique\Compet'\Projet-Compet.nxc"
11	7921	383	#line 7921 "NXCDefs.h"
11	7922	383		wait2 NA, __Wait_7qG2_ms_7qG2_000_inline_cle
11	7921	386	#line 7921 "NXCDefs.h"
11	330	386	#line 330 "D:\Labo - Robotique\Compet'\Projet-Compet.nxc"
11	330	386	#line 330 "D:\Labo - Robotique\Compet'\Projet-Compet.nxc"
11	331	386		set __signed_stack_001cle, 660
11	330	389	#line 330 "D:\Labo - Robotique\Compet'\Projet-Compet.nxc"
11	330	389	#line 330 "D:\Labo - Robotique\Compet'\Projet-Compet.nxc"
11	331	389		set __signed_stack_002cle, 150
11	330	392	#line 330 "D:\Labo - Robotique\Compet'\Projet-Compet.nxc"
11	330	392	#line 330 "D:\Labo - Robotique\Compet'\Projet-Compet.nxc"
11	331	392		set __signed_stack_003cle, 4
11	330	395	#line 330 "D:\Labo - Robotique\Compet'\Projet-Compet.nxc"
11	330	395	#line 330 "D:\Labo - Robotique\Compet'\Projet-Compet.nxc"
11	331	395		set __D0cle, 0
11	331	398	#line 331 "D:\Labo - Robotique\Compet'\Projet-Compet.nxc"
11	332	398		acquire __SPTArgsMutex
11	331	399	#line 331 "D:\Labo - Robotique\Compet'\Projet-Compet.nxc"
11	332	399		mov __SPTArgs.Frequency, __signed_stack_001cle
11	331	402	#line 331 "D:\Labo - Robotique\Compet'\Projet-Compet.nxc"
11	332	402		mov __SPTArgs.Duration, __signed_stack_002cle
11	331	405	#line 331 "D:\Labo - Robotique\Compet'\Projet-Compet.nxc"
11	332	405		mov __SPTArgs.Volume, __signed_stack_003cle
11	331	408	#line 331 "D:\Labo - Robotique\Compet'\Projet-Compet.nxc"
11	332	408		mov __SPTArgs.Loop, __D0cle
11	331	411	#line 331 "D:\Labo - Robotique\Compet'\Projet-Compet.nxc"
11	332	411		syscall 10, __SPTArgs
11	331	414	#line 331 "D:\Labo - Robotique\Compet'\Projet-Compet.nxc"
11	332	414		mov __D0cle, __SPTArgs.Result
11	331	417	#line 331 "D:\Labo - Robotique\Compet'\Projet-Compet.nxc"
11	332	417		release __SPTArgsMutex
11	331	418	#line 331 "D:\Labo - Robotique\Compet'\Projet-Compet.nxc"
11	331	418	#line 331 "D:\Labo - Robotique\Compet'\Projet-Compet.nxc"
11	332	418		set __Wait_7qG2_ms_7qG2_000_inline_cle, 175
11	331	421	#line 331 "D:\Labo - Robotique\Compet'\Projet-Compet.nxc"
11	7921	421	#line 7921 "NXCDefs.h"
11	7922	421		wait2 NA, __Wait_7qG2_ms_7qG2_000_inline_cle
11	7921	424	#line 7921 "NXCDefs.h"
11	332	424	#line 332 "D:\Labo - Robotique\Compet'\Projet-Compet.nxc"
11	332	424	#line 332 "D:\Labo - Robotique\Compet'\Projet-Compet.nxc"
11	333	424		set __signed_stack_001cle, 830
11	332	427	#line 332 "D:\Labo - Robotique\Compet'\Projet-Compet.nxc"
11	332	427	#line 332 "D:\Labo - Robotique\Compet'\Projet-Compet.nxc"
11	333	427		set __signed_stack_002cle, 150
11	332	430	#line 332 "D:\Labo - Robotique\Compet'\Projet-Compet.nxc"
11	332	430	#line 332 "D:\Labo - Robotique\Compet'\Projet-Compet.nxc"
11	333	430		set __signed_stack_003cle, 4
11	332	433	#line 332 "D:\Labo - Robotique\Compet'\Projet-Compet.nxc"
11	332	433	#line 332 "D:\Labo - Robotique\Compet'\Projet-Compet.nxc"
11	333	433		set __D0cle, 0
11	333	436	#line 333 "D:\Labo - Robotique\Compet'\Projet-Compet.nxc"
11	334	436		acquire __SPTArgsMutex
11	333	437	#line 333 "D:\Labo - Robotique\Compet'\Projet-Compet.nxc"
11	334	437		mov __SPTArgs.Frequency, __signed_stack_001cle
11	333	440	#line 333 "D:\Labo - Robotique\Compet'\Projet-Compet.nxc"
11	334	440		mov __SPTArgs.Duration, __signed_stack_002cle
11	333	443	#line 333 "D:\Labo - Robotique\Compet'\Projet-Compet.nxc"
11	334	443		mov __SPTArgs.Volume, __signed_stack_003cle
11	333	446	#line 333 "D:\Labo - Robotique\Compet'\Projet-Compet.nxc"
11	334	446		mov __SPTArgs.Loop, __D0cle
11	333	449	#line 333 "D:\Labo - Robotique\Compet'\Projet-Compet.nxc"
11	334	449		syscall 10, __SPTArgs
11	333	452	#line 333 "D:\Labo - Robotique\Compet'\Projet-Compet.nxc"
11	334	452		mov __D0cle, __SPTArgs.Result
11	333	455	#line 333 "D:\Labo - Robotique\Compet'\Projet-Compet.nxc"
11	334	455		release __SPTArgsMutex
11	333	456	#line 333 "D:\Labo - Robotique\Compet'\Projet-Compet.nxc"
11	333	456	#line 333 "D:\Labo - Robotique\Compet'\Projet-Compet.nxc"
11	334	456		set __Wait_7qG2_ms_7qG2_000_inline_cle, 175
11	333	459	#line 333 "D:\Labo - Robotique\Compet'\Projet-Compet.nxc"
11	7921	459	#line 7921 "NXCDefs.h"
11	7922	459		wait2 NA, __Wait_7qG2_ms_7qG2_000_inline_cle
11	7921	462	#line 7921 "NXCDefs.h"
11	334	462	#line 334 "D:\Labo - Robotique\Compet'\Projet-Compet.nxc"
11	334	462	#line 334 "D:\Labo - Robotique\Compet'\Projet-Compet.nxc"
11	335	462		set __signed_stack_001cle, 1046
11	334	465	#line 334 "D:\Labo - Robotique\Compet'\Projet-Compet.nxc"
11	334	465	#line 334 "D:\Labo - Robotique\Compet'\Projet-Compet.nxc"
11	335	465		set __signed_stack_002cle, 150
11	334	468	#line 334 "D:\Labo - Robotique\Compet'\Projet-Compet.nxc"
11	334	468	#line 334 "D:\Labo - Robotique\Compet'\Projet-Compet.nxc"
11	335	468		set __signed_stack_003cle, 4
11	334	471	#line 334 "D:\Labo - Robotique\Compet'\Projet-Compet.nxc"
11	334	471	#line 334 "D:\Labo - Robotique\Compet'\Projet-Compet.nxc"
11	335	471		set __D0cle, 0
11	335	474	#line 335 "D:\Labo - Robotique\Compet'\Projet-Compet.nxc"
11	336	474		acquire __SPTArgsMutex
11	335	475	#line 335 "D:\Labo - Robotique\Compet'\Projet-Compet.nxc"
11	336	475		mov __SPTArgs.Frequency, __signed_stack_001cle
11	335	478	#line 335 "D:\Labo - Robotique\Compet'\Projet-Compet.nxc"
11	336	478		mov __SPTArgs.Duration, __signed_stack_002cle
11	335	481	#line 335 "D:\Labo - Robotique\Compet'\Projet-Compet.nxc"
11	336	481		mov __SPTArgs.Volume, __signed_stack_003cle
11	335	484	#line 335 "D:\Labo - Robotique\Compet'\Projet-Compet.nxc"
11	336	484		mov __SPTArgs.Loop, __D0cle
11	335	487	#line 335 "D:\Labo - Robotique\Compet'\Projet-Compet.nxc"
11	336	487		syscall 10, __SPTArgs
11	335	490	#line 335 "D:\Labo - Robotique\Compet'\Projet-Compet.nxc"
11	336	490		mov __D0cle, __SPTArgs.Result
11	335	493	#line 335 "D:\Labo - Robotique\Compet'\Projet-Compet.nxc"
11	336	493		release __SPTArgsMutex
11	335	494	#line 335 "D:\Labo - Robotique\Compet'\Projet-Compet.nxc"
11	335	494	#line 335 "D:\Labo - Robotique\Compet'\Projet-Compet.nxc"
11	336	494		set __Wait_7qG2_ms_7qG2_000_inline_cle, 500
11	335	497	#line 335 "D:\Labo - Robotique\Compet'\Projet-Compet.nxc"
11	7921	497	#line 7921 "NXCDefs.h"
11	7922	497		wait2 NA, __Wait_7qG2_ms_7qG2_000_inline_cle
11	7921	500	#line 7921 "NXCDefs.h"
11	336	500	#line 336 "D:\Labo - Robotique\Compet'\Projet-Compet.nxc"
11	337	500	#line 337 "D:\Labo - Robotique\Compet'\Projet-Compet.nxc"
11	337	500	#line 337 "D:\Labo - Robotique\Compet'\Projet-Compet.nxc"
11	338	500		set __D0cle, 57
11	338	503	#line 338 "D:\Labo - Robotique\Compet'\Projet-Compet.nxc"
11	339	503	#pragma macro 10
11	339	503		acquire __OnRevMutex
11	339	504		neg __OnRev_Tmp, __D0cle
11	339	507		setout __constVal0, 2, __OnRev_Tmp, 1, __constVal3, 8, __constVal0, 6, __constVal32, 7, __constVal0, 5, __constVal0, 10, __constVal96, 11, __constVal32, 12, __constVal32, 0, __constVal63
11	339	530		release __OnRevMutex
11	7902	531	#line 7902 "D:\Labo - Robotique\Compet'\Projet-Compet.nxc"
11	338	531	#line 338 "D:\Labo - Robotique\Compet'\Projet-Compet.nxc"
11	338	531	#line 338 "D:\Labo - Robotique\Compet'\Projet-Compet.nxc"
11	339	531		set __D0cle, 50
11	339	534	#line 339 "D:\Labo - Robotique\Compet'\Projet-Compet.nxc"
11	340	534	#pragma macro 10
11	340	534		acquire __OnRevMutex
11	340	535		neg __OnRev_Tmp, __D0cle
11	340	538		setout __constVal1, 2, __OnRev_Tmp, 1, __constVal3, 8, __constVal0, 6, __constVal32, 7, __constVal0, 5, __constVal0, 10, __constVal96, 11, __constVal32, 12, __constVal32, 0, __constVal63
11	340	561		release __OnRevMutex
11	7909	562	#line 7909 "D:\Labo - Robotique\Compet'\Projet-Compet.nxc"
11	339	562	#line 339 "D:\Labo - Robotique\Compet'\Projet-Compet.nxc"
11	339	562	#line 339 "D:\Labo - Robotique\Compet'\Projet-Compet.nxc"
11	340	562		set __Wait_7qG2_ms_7qG2_000_inline_cle, 1500
11	339	565	#line 339 "D:\Labo - Robotique\Compet'\Projet-Compet.nxc"
11	7921	565	#line 7921 "NXCDefs.h"
11	7922	565		wait2 NA, __Wait_7qG2_ms_7qG2_000_inline_cle
11	7921	568	#line 7921 "NXCDefs.h"
11	340	568	#line 340 "D:\Labo - Robotique\Compet'\Projet-Compet.nxc"
11	340	568	#line 340 "D:\Labo - Robotique\Compet'\Projet-Compet.nxc"
11	341	568		set __signed_stack_001cle, 57
11	340	571	#line 340 "D:\Labo - Robotique\Compet'\Projet-Compet.nxc"
11	340	571	#line 340 "D:\Labo - Robotique\Compet'\Projet-Compet.nxc"
11	341	571		mov __D0cle, __constValNeg210
11	341	573	#line 341 "D:\Labo - Robotique\Compet'\Projet-Compet.nxc"
11	342	573	#pragma macro 33
11	342	573		acquire __rotateMutex0
11	342	574		arrbuild __rotate_ports0, __constVal0
11	342	578		mov __rotate_power0, __signed_stack_001cle
11	342	580		mov __rotate_angle0, __D0cle
11	342	582		mov __rotate_turnpct0, __constVal0
11	342	584		mov __rotate_sync0, __constVal0
11	342	586		mov __rotate_stop0, __constVal1
11	342	588		mov __rotate_theRVP0, __constVal32
11	342	590		mov __rotate_theRVI0, __constVal0
11	342	592		mov __rotate_theRVD0, __constVal96
11	342	594		subcall __RotateMotor0, ____RotateMotor0_return
11	342	597		release __rotateMutex0
11	7932	598	#line 7932 "D:\Labo - Robotique\Compet'\Projet-Compet.nxc"
11	341	598	#line 341 "D:\Labo - Robotique\Compet'\Projet-Compet.nxc"
11	341	598	#line 341 "D:\Labo - Robotique\Compet'\Projet-Compet.nxc"
11	342	598		set __signed_stack_001cle, 50
11	341	601	#line 341 "D:\Labo - Robotique\Compet'\Projet-Compet.nxc"
11	341	601	#line 341 "D:\Labo - Robotique\Compet'\Projet-Compet.nxc"
11	342	601		set __D0cle, 210
11	342	604	#line 342 "D:\Labo - Robotique\Compet'\Projet-Compet.nxc"
11	343	604	#pragma macro 33
11	343	604		acquire __rotateMutex1
11	343	605		arrbuild __rotate_ports1, __constVal1
11	343	609		mov __rotate_power1, __signed_stack_001cle
11	343	612		mov __rotate_angle1, __D0cle
11	343	614		mov __rotate_turnpct1, __constVal0
11	343	616		mov __rotate_sync1, __constVal0
11	343	618		mov __rotate_stop1, __constVal1
11	343	620		mov __rotate_theRVP1, __constVal32
11	343	622		mov __rotate_theRVI1, __constVal0
11	343	624		mov __rotate_theRVD1, __constVal96
11	343	626		subcall __RotateMotor1, ____RotateMotor1_return
11	343	629		release __rotateMutex1
11	7945	630	#line 7945 "D:\Labo - Robotique\Compet'\Projet-Compet.nxc"
11	342	630	#line 342 "D:\Labo - Robotique\Compet'\Projet-Compet.nxc"
11	342	630	#line 342 "D:\Labo - Robotique\Compet'\Projet-Compet.nxc"
11	343	630		set __D0cle, 57
11	343	633	#line 343 "D:\Labo - Robotique\Compet'\Projet-Compet.nxc"
11	344	633	#pragma macro 7
11	344	633		setout __constVal0, 2, __D0cle, 1, __constVal3, 8, __constVal0, 6, __constVal32, 7, __constVal0, 5, __constVal0, 10, __constVal96, 11, __constVal32, 12, __constVal32, 0, __constVal63
11	7952	656	#line 7952 "D:\Labo - Robotique\Compet'\Projet-Compet.nxc"
11	343	656	#line 343 "D:\Labo - Robotique\Compet'\Projet-Compet.nxc"
11	343	656	#line 343 "D:\Labo - Robotique\Compet'\Projet-Compet.nxc"
11	344	656		set __D0cle, 50
11	345	659	#line 345 "D:\Labo - Robotique\Compet'\Projet-Compet.nxc"
11	346	659	#pragma macro 7
11	346	659		setout __constVal1, 2, __D0cle, 1, __constVal3, 8, __constVal0, 6, __constVal32, 7, __constVal0, 5, __constVal0, 10, __constVal96, 11, __constVal32, 12, __constVal32, 0, __constVal63
11	7959	682	#line 7959 "D:\Labo - Robotique\Compet'\Projet-Compet.nxc"
11	345	682	#line 345 "D:\Labo - Robotique\Compet'\Projet-Compet.nxc"
11	345	682	#line 345 "D:\Labo - Robotique\Compet'\Projet-Compet.nxc"
11	346	682	#pragma macro 26
11	346	682		acquire __RLSBmutex2
11	346	683		mov __RLSReadBuf2, __RLSBbufLSWrite1
11	346	685		set __RLSBytesCount2, 1
11	346	688		wait2 NA, __constVal15
11	346	691		subcall __ReadLSBytes2, ____ReadLSBytes2_return
11	346	694		index __D0cle, __RLSReadBuf2, 65535
11	346	698		release __RLSBmutex2
11	7962	699	#line 7962 "D:\Labo - Robotique\Compet'\Projet-Compet.nxc"
11	345	699	#line 345 "D:\Labo - Robotique\Compet'\Projet-Compet.nxc"
11	346	699		mov __signed_stack_001cle, __D0cle
11	346	701	#line 346 "D:\Labo - Robotique\Compet'\Projet-Compet.nxc"
11	347	701		set __D0cle, 20
11	346	704	#line 346 "D:\Labo - Robotique\Compet'\Projet-Compet.nxc"
11	347	704		cmp 0, __zfcle, __signed_stack_001cle, __D0cle
11	346	708	#line 346 "D:\Labo - Robotique\Compet'\Projet-Compet.nxc"
11	347	708		mov __D0cle, __zfcle
11	347	711	#line 347 "D:\Labo - Robotique\Compet'\Projet-Compet.nxc"
11	348	711		brtst 4, __NXC_Label_1021, __zfcle
11	348	714	#line 348 "D:\Labo - Robotique\Compet'\Projet-Compet.nxc"
11	349	714	#pragma macro 7
11	349	714		setout __OUT_AB, 2, __constVal0, 1, __constVal3, 8, __constVal0, 6, __constVal32, 7, __constVal0, 5, __constVal0, 10, __constVal96, 11, __constVal32, 12, __constVal32, 0, __constVal63
11	7976	737	#line 7976 "D:\Labo - Robotique\Compet'\Projet-Compet.nxc"
11	348	737	#line 348 "D:\Labo - Robotique\Compet'\Projet-Compet.nxc"
11	348	737	#line 348 "D:\Labo - Robotique\Compet'\Projet-Compet.nxc"
11	349	737		set __signed_stack_001cle, 53
11	348	740	#line 348 "D:\Labo - Robotique\Compet'\Projet-Compet.nxc"
11	348	740	#line 348 "D:\Labo - Robotique\Compet'\Projet-Compet.nxc"
11	349	740		mov __D0cle, __constValNeg210
11	349	742	#line 349 "D:\Labo - Robotique\Compet'\Projet-Compet.nxc"
11	350	742	#pragma macro 33
11	350	742		acquire __rotateMutex0
11	350	743		arrbuild __rotate_ports0, __constVal0
11	350	747		mov __rotate_power0, __signed_stack_001cle
11	350	749		mov __rotate_angle0, __D0cle
11	350	751		mov __rotate_turnpct0, __constVal0
11	350	753		mov __rotate_sync0, __constVal0
11	350	755		mov __rotate_stop0, __constVal1
11	350	757		mov __rotate_theRVP0, __constVal32
11	350	759		mov __rotate_theRVI0, __constVal0
11	350	761		mov __rotate_theRVD0, __constVal96
11	350	763		subcall __RotateMotor0, ____RotateMotor0_return
11	350	766		release __rotateMutex0
11	7989	767	#line 7989 "D:\Labo - Robotique\Compet'\Projet-Compet.nxc"
11	349	767	#line 349 "D:\Labo - Robotique\Compet'\Projet-Compet.nxc"
11	349	767	#line 349 "D:\Labo - Robotique\Compet'\Projet-Compet.nxc"
11	350	767		set __signed_stack_001cle, 50
11	349	770	#line 349 "D:\Labo - Robotique\Compet'\Projet-Compet.nxc"
11	349	770	#line 349 "D:\Labo - Robotique\Compet'\Projet-Compet.nxc"
11	350	770		set __D0cle, 210
11	350	773	#line 350 "D:\Labo - Robotique\Compet'\Projet-Compet.nxc"
11	351	773	#pragma macro 33
11	351	773		acquire __rotateMutex1
11	351	774		arrbuild __rotate_ports1, __constVal1
11	351	778		mov __rotate_power1, __signed_stack_001cle
11	351	781		mov __rotate_angle1, __D0cle
11	351	783		mov __rotate_turnpct1, __constVal0
11	351	785		mov __rotate_sync1, __constVal0
11	351	787		mov __rotate_stop1, __constVal1
11	351	789		mov __rotate_theRVP1, __constVal32
11	351	791		mov __rotate_theRVI1, __constVal0
11	351	793		mov __rotate_theRVD1, __constVal96
11	351	795		subcall __RotateMotor1, ____RotateMotor1_return
11	351	798		release __rotateMutex1
11	8002	799	#line 8002 "D:\Labo - Robotique\Compet'\Projet-Compet.nxc"
11	350	799	#line 350 "D:\Labo - Robotique\Compet'\Projet-Compet.nxc"
11	352	799	#line 352 "D:\Labo - Robotique\Compet'\Projet-Compet.nxc"
11	352	799	#line 352 "D:\Labo - Robotique\Compet'\Projet-Compet.nxc"
11	353	799		set __D0cle, 53
11	353	802	#line 353 "D:\Labo - Robotique\Compet'\Projet-Compet.nxc"
11	354	802	#pragma macro 7
11	354	802		setout __constVal0, 2, __D0cle, 1, __constVal3, 8, __constVal0, 6, __constVal32, 7, __constVal0, 5, __constVal0, 10, __constVal96, 11, __constVal32, 12, __constVal32, 0, __constVal63
11	8011	825	#line 8011 "D:\Labo - Robotique\Compet'\Projet-Compet.nxc"
11	353	825	#line 353 "D:\Labo - Robotique\Compet'\Projet-Compet.nxc"
11	353	825	#line 353 "D:\Labo - Robotique\Compet'\Projet-Compet.nxc"
11	354	825		set __D0cle, 50
11	355	828	#line 355 "D:\Labo - Robotique\Compet'\Projet-Compet.nxc"
11	356	828	#pragma macro 7
11	356	828		setout __constVal1, 2, __D0cle, 1, __constVal3, 8, __constVal0, 6, __constVal32, 7, __constVal0, 5, __constVal0, 10, __constVal96, 11, __constVal32, 12, __constVal32, 0, __constVal63
11	8018	851	#line 8018 "D:\Labo - Robotique\Compet'\Projet-Compet.nxc"
11	355	851	#line 355 "D:\Labo - Robotique\Compet'\Projet-Compet.nxc"
11	355	851	#line 355 "D:\Labo - Robotique\Compet'\Projet-Compet.nxc"
11	356	851		mov __signed_stack_001cle, __cle_7qG2_csr_7qG2_001.ColorValue
11	355	854	#line 355 "D:\Labo - Robotique\Compet'\Projet-Compet.nxc"
11	356	854	#line 356 "D:\Labo - Robotique\Compet'\Projet-Compet.nxc"
11	357	854		set __D0cle, 3
11	356	857	#line 356 "D:\Labo - Robotique\Compet'\Projet-Compet.nxc"
11	357	857		cmp 4, __zfcle, __signed_stack_001cle, __D0cle
11	356	861	#line 356 "D:\Labo - Robotique\Compet'\Projet-Compet.nxc"
11	357	861		mov __D0cle, __zfcle
11	357	864	#line 357 "D:\Labo - Robotique\Compet'\Projet-Compet.nxc"
11	358	864		brtst 4, __NXC_Label_1036, __zfcle
11	358	867	#line 358 "D:\Labo - Robotique\Compet'\Projet-Compet.nxc"
11	359	867	#pragma macro 7
11	359	867		setout __OUT_AB, 2, __constVal0, 1, __constVal3, 8, __constVal0, 6, __constVal32, 7, __constVal0, 5, __constVal0, 10, __constVal96, 11, __constVal32, 12, __constVal32, 0, __constVal63
11	8035	890	#line 8035 "D:\Labo - Robotique\Compet'\Projet-Compet.nxc"
11	358	890	#line 358 "D:\Labo - Robotique\Compet'\Projet-Compet.nxc"
11	358	890	#line 358 "D:\Labo - Robotique\Compet'\Projet-Compet.nxc"
11	359	890		set __Wait_7qG2_ms_7qG2_000_inline_cle, 1000
11	358	893	#line 358 "D:\Labo - Robotique\Compet'\Projet-Compet.nxc"
11	7921	893	#line 7921 "NXCDefs.h"
11	7922	893		wait2 NA, __Wait_7qG2_ms_7qG2_000_inline_cle
11	7921	896	#line 7921 "NXCDefs.h"
11	359	896	#line 359 "D:\Labo - Robotique\Compet'\Projet-Compet.nxc"
11	360	896	#line 360 "D:\Labo - Robotique\Compet'\Projet-Compet.nxc"
11	361	896		jmp __NXC_Label_905
11	360	898	#line 360 "D:\Labo - Robotique\Compet'\Projet-Compet.nxc"
11	363	898	#line 363 "D:\Labo - Robotique\Compet'\Projet-Compet.nxc"
11	363	898	#line 363 "D:\Labo - Robotique\Compet'\Projet-Compet.nxc"
11	364	898		jmp __NXC_Label_904
11	363	900	#line 363 "D:\Labo - Robotique\Compet'\Projet-Compet.nxc"
11	364	900	#line 364 "D:\Labo - Robotique\Compet'\Projet-Compet.nxc"
11	365	900		set __D0cle, 1
11	365	903	#line 365 "D:\Labo - Robotique\Compet'\Projet-Compet.nxc"
11	366	903		tst 5, __zfcle, __D0cle
11	365	906	#line 365 "D:\Labo - Robotique\Compet'\Projet-Compet.nxc"
11	366	906		brtst 4, __NXC_Label_1040, __zfcle
11	365	909	#line 365 "D:\Labo - Robotique\Compet'\Projet-Compet.nxc"
11	366	909		set __SetSensorColorFull_7qG2_port_7qG2_000_inline_cle, 0
11	365	912	#line 365 "D:\Labo - Robotique\Compet'\Projet-Compet.nxc"
11	3802	912	#line 3802 "NXCDefs.h"
11	3803	912	#pragma macro 6
11	3803	912		setin __constVal13, __SetSensorColorFull_7qG2_port_7qG2_000_inline_cle, 0
11	3803	916		setin __constVal0, __SetSensorColorFull_7qG2_port_7qG2_000_inline_cle, 1
11	3803	920		acquire __ResetSensorMutex
11	3803	921		mov __ResetSensorPort, __SetSensorColorFull_7qG2_port_7qG2_000_inline_cle
11	3803	923		subcall __ResetSensorSubroutine, ____ResetSensorSubroutine_return
11	3803	926		release __ResetSensorMutex
11	8072	927	#line 8072 "NXCDefs.h"
11	3802	927	#line 3802 "NXCDefs.h"
11	366	927	#line 366 "D:\Labo - Robotique\Compet'\Projet-Compet.nxc"
11	368	927	#line 368 "D:\Labo - Robotique\Compet'\Projet-Compet.nxc"
11	369	927		set __cle_7qG2_csr_7qG2_001.Port, 0
11	368	930	#line 368 "D:\Labo - Robotique\Compet'\Projet-Compet.nxc"
11	368	930	#line 368 "D:\Labo - Robotique\Compet'\Projet-Compet.nxc"
11	369	930	#line 369 "D:\Labo - Robotique\Compet'\Projet-Compet.nxc"
11	370	930	#pragma macro 4
11	370	930	#line 370 "D:\Labo - Robotique\Compet'\Projet-Compet.nxc"
11	370	930		syscall 34, __cle_7qG2_csr_7qG2_001
11	368	933	#line 368 "D:\Labo - Robotique\Compet'\Projet-Compet.nxc"
11	368	933	#line 368 "D:\Labo - Robotique\Compet'\Projet-Compet.nxc"
11	368	933	#line 368 "D:\Labo - Robotique\Compet'\Projet-Compet.nxc"
11	368	933	#line 368 "D:\Labo - Robotique\Compet'\Projet-Compet.nxc"
11	370	933	#line 370 "D:\Labo - Robotique\Compet'\Projet-Compet.nxc"
11	369	933	#line 369 "D:\Labo - Robotique\Compet'\Projet-Compet.nxc"
11	370	933	#line 370 "D:\Labo - Robotique\Compet'\Projet-Compet.nxc"
11	371	933		set __D0cle, 53
11	371	936	#line 371 "D:\Labo - Robotique\Compet'\Projet-Compet.nxc"
11	372	936	#pragma macro 7
11	372	936		setout __constVal0, 2, __D0cle, 1, __constVal3, 8, __constVal0, 6, __constVal32, 7, __constVal0, 5, __constVal0, 10, __constVal96, 11, __constVal32, 12, __constVal32, 0, __constVal63
11	8098	959	#line 8098 "D:\Labo - Robotique\Compet'\Projet-Compet.nxc"
11	371	959	#line 371 "D:\Labo - Robotique\Compet'\Projet-Compet.nxc"
11	371	959	#line 371 "D:\Labo - Robotique\Compet'\Projet-Compet.nxc"
11	372	959		set __D0cle, 50
11	373	962	#line 373 "D:\Labo - Robotique\Compet'\Projet-Compet.nxc"
11	374	962	#pragma macro 7
11	374	962		setout __constVal1, 2, __D0cle, 1, __constVal3, 8, __constVal0, 6, __constVal32, 7, __constVal0, 5, __constVal0, 10, __constVal96, 11, __constVal32, 12, __constVal32, 0, __constVal63
11	8105	985	#line 8105 "D:\Labo - Robotique\Compet'\Projet-Compet.nxc"
11	373	985	#line 373 "D:\Labo - Robotique\Compet'\Projet-Compet.nxc"
11	373	985	#line 373 "D:\Labo - Robotique\Compet'\Projet-Compet.nxc"
11	374	985	#pragma macro 26
11	374	985		acquire __RLSBmutex2
11	374	986		mov __RLSReadBuf2, __RLSBbufLSWrite1
11	374	988		set __RLSBytesCount2, 1
11	374	991		wait2 NA, __constVal15
11	374	994		subcall __ReadLSBytes2, ____ReadLSBytes2_return
11	374	997		index __D0cle, __RLSReadBuf2, 65535
11	374	1001		release __RLSBmutex2
11	8108	1002	#line 8108 "D:\Labo - Robotique\Compet'\Projet-Compet.nxc"
11	373	1002	#line 373 "D:\Labo - Robotique\Compet'\Projet-Compet.nxc"
11	374	1002		mov __signed_stack_001cle, __D0cle
11	374	1004	#line 374 "D:\Labo - Robotique\Compet'\Projet-Compet.nxc"
11	375	1004		set __D0cle, 15
11	374	1007	#line 374 "D:\Labo - Robotique\Compet'\Projet-Compet.nxc"
11	375	1007		cmp 0, __zfcle, __signed_stack_001cle, __D0cle
11	374	1011	#line 374 "D:\Labo - Robotique\Compet'\Projet-Compet.nxc"
11	375	1011		mov __D0cle, __zfcle
11	375	1014	#line 375 "D:\Labo - Robotique\Compet'\Projet-Compet.nxc"
11	376	1014		brtst 4, __NXC_Label_1053, __zfcle
11	376	1017	#line 376 "D:\Labo - Robotique\Compet'\Projet-Compet.nxc"
11	377	1017	#pragma macro 7
11	377	1017		setout __OUT_AB, 2, __constVal0, 1, __constVal3, 8, __constVal0, 6, __constVal32, 7, __constVal0, 5, __constVal0, 10, __constVal96, 11, __constVal32, 12, __constVal32, 0, __constVal63
11	8122	1040	#line 8122 "D:\Labo - Robotique\Compet'\Projet-Compet.nxc"
11	376	1040	#line 376 "D:\Labo - Robotique\Compet'\Projet-Compet.nxc"
11	376	1040	#line 376 "D:\Labo - Robotique\Compet'\Projet-Compet.nxc"
11	377	1040		set __signed_stack_001cle, 53
11	376	1043	#line 376 "D:\Labo - Robotique\Compet'\Projet-Compet.nxc"
11	376	1043	#line 376 "D:\Labo - Robotique\Compet'\Projet-Compet.nxc"
11	377	1043		set __D0cle, 210
11	377	1046	#line 377 "D:\Labo - Robotique\Compet'\Projet-Compet.nxc"
11	378	1046	#pragma macro 33
11	378	1046		acquire __rotateMutex0
11	378	1047		arrbuild __rotate_ports0, __constVal0
11	378	1051		mov __rotate_power0, __signed_stack_001cle
11	378	1053		mov __rotate_angle0, __D0cle
11	378	1055		mov __rotate_turnpct0, __constVal0
11	378	1057		mov __rotate_sync0, __constVal0
11	378	1059		mov __rotate_stop0, __constVal1
11	378	1061		mov __rotate_theRVP0, __constVal32
11	378	1063		mov __rotate_theRVI0, __constVal0
11	378	1065		mov __rotate_theRVD0, __constVal96
11	378	1067		subcall __RotateMotor0, ____RotateMotor0_return
11	378	1070		release __rotateMutex0
11	8135	1071	#line 8135 "D:\Labo - Robotique\Compet'\Projet-Compet.nxc"
11	377	1071	#line 377 "D:\Labo - Robotique\Compet'\Projet-Compet.nxc"
11	377	1071	#line 377 "D:\Labo - Robotique\Compet'\Projet-Compet.nxc"
11	378	1071		set __signed_stack_001cle, 50
11	377	1074	#line 377 "D:\Labo - Robotique\Compet'\Projet-Compet.nxc"
11	377	1074	#line 377 "D:\Labo - Robotique\Compet'\Projet-Compet.nxc"
11	378	1074		mov __D0cle, __constValNeg210
11	378	1076	#line 378 "D:\Labo - Robotique\Compet'\Projet-Compet.nxc"
11	379	1076	#pragma macro 33
11	379	1076		acquire __rotateMutex1
11	379	1077		arrbuild __rotate_ports1, __constVal1
11	379	1081		mov __rotate_power1, __signed_stack_001cle
11	379	1084		mov __rotate_angle1, __D0cle
11	379	1086		mov __rotate_turnpct1, __constVal0
11	379	1088		mov __rotate_sync1, __constVal0
11	379	1090		mov __rotate_stop1, __constVal1
11	379	1092		mov __rotate_theRVP1, __constVal32
11	379	1094		mov __rotate_theRVI1, __constVal0
11	379	1096		mov __rotate_theRVD1, __constVal96
11	379	1098		subcall __RotateMotor1, ____RotateMotor1_return
11	379	1101		release __rotateMutex1
11	8148	1102	#line 8148 "D:\Labo - Robotique\Compet'\Projet-Compet.nxc"
11	378	1102	#line 378 "D:\Labo - Robotique\Compet'\Projet-Compet.nxc"
11	380	1102	#line 380 "D:\Labo - Robotique\Compet'\Projet-Compet.nxc"
11	380	1102	#line 380 "D:\Labo - Robotique\Compet'\Projet-Compet.nxc"
11	381	1102		mov __signed_stack_001cle, __cle_7qG2_csr_7qG2_001.ColorValue
11	380	1105	#line 380 "D:\Labo - Robotique\Compet'\Projet-Compet.nxc"
11	381	1105	#line 381 "D:\Labo - Robotique\Compet'\Projet-Compet.nxc"
11	382	1105		set __D0cle, 2
11	381	1108	#line 381 "D:\Labo - Robotique\Compet'\Projet-Compet.nxc"
11	382	1108		cmp 4, __zfcle, __signed_stack_001cle, __D0cle
11	381	1112	#line 381 "D:\Labo - Robotique\Compet'\Projet-Compet.nxc"
11	382	1112		mov __D0cle, __zfcle
11	382	1115	#line 382 "D:\Labo - Robotique\Compet'\Projet-Compet.nxc"
11	383	1115		brtst 4, __NXC_Label_1064, __zfcle
11	383	1118	#line 383 "D:\Labo - Robotique\Compet'\Projet-Compet.nxc"
11	384	1118		jmp __NXC_Label_1040
11	383	1120	#line 383 "D:\Labo - Robotique\Compet'\Projet-Compet.nxc"
11	385	1120	#line 385 "D:\Labo - Robotique\Compet'\Projet-Compet.nxc"
11	387	1120	#line 387 "D:\Labo - Robotique\Compet'\Projet-Compet.nxc"
11	388	1120		jmp __NXC_Label_1039
11	387	1122	#line 387 "D:\Labo - Robotique\Compet'\Projet-Compet.nxc"
11	387	1122	#line 387 "D:\Labo - Robotique\Compet'\Projet-Compet.nxc"
11	388	1122		subret __cle_return
12	549	0	#line 549 "D:\Labo - Robotique\Compet'\Projet-Compet.nxc"
12	550	0		subret ____initialize_global_data_return
#CLUMPS
Clump	Name	Offset	File
0	main	0	D:\Labo - Robotique\Compet\Projet-Compet.nxc
1	__RotateMotor0	1021	NXTDefs.h
2	__RotateMotor1	1190	NXTDefs.h
3	__ResetSensorSubroutine	1359	NXTDefs.h
4	__ReadLSBytes2	1372	NXTDefs.h
5	__ReadLSBytes3	1459	NXTDefs.h
6	depart	1548	D:\Labo - Robotique\Compet\Projet-Compet.nxc
7	suivre_ligne	2196	D:\Labo - Robotique\Compet\Projet-Compet.nxc
8	canape	2613	D:\Labo - Robotique\Compet\Projet-Compet.nxc
9	locaux	3442	D:\Labo - Robotique\Compet\Projet-Compet.nxc
10	humeur	4119	D:\Labo - Robotique\Compet\Projet-Compet.nxc
11	cle	4959	D:\Labo - Robotique\Compet\Projet-Compet.nxc
12	__initialize_global_data	6083	D:\Labo - Robotique\Compet\Projet-Compet.nxc
